ccopy_reg
_reconstructor
p0
(cnltk.classify.naivebayes
NaiveBayesClassifier
p1
c__builtin__
object
p2
Ntp3
Rp4
(dp5
S'_labels'
p6
(lp7
S'show-notifications'
p8
aS'create-project'
p9
aS'weather-general'
p10
aS'clear-notifications'
p11
aS'waking_up'
p12
aS'weather-snow'
p13
aS'close-project'
p14
aS'open-project'
p15
aS'weather-bad'
p16
aS'weather-rain'
p17
asS'_feature_probdist'
p18
(dp19
(g14
S'awake'
p20
tp21
g0
(cnltk.probability
ELEProbDist
p22
g2
Ntp23
Rp24
(dp25
S'_gamma'
p26
F0.5
sS'_N'
p27
I2
sS'_freqdist'
p28
cnltk.probability
FreqDist
p29
((dp30
I00
I2
stp31
Rp32
sS'_bins'
p33
I2
sS'_divisor'
p34
F3.0
sbs(g17
S'done'
p35
tp36
g0
(g22
g2
Ntp37
Rp38
(dp39
g26
F0.5
sg27
I3
sg28
g29
((dp40
I00
I3
stp41
Rp42
sg33
I2
sg34
F4.0
sbs(g17
S'?'
p43
tp44
g0
(g22
g2
Ntp45
Rp46
(dp47
g26
F0.5
sg27
I3
sg28
g29
((dp48
I00
I3
stp49
Rp50
sg33
I2
sg34
F4.0
sbs(g13
S'woke'
p51
tp52
g0
(g22
g2
Ntp53
Rp54
(dp55
g26
F0.5
sg27
I3
sg28
g29
((dp56
I00
I3
stp57
Rp58
sg33
I2
sg34
F4.0
sbs(g12
S"'m"
p59
tp60
g0
(g22
g2
Ntp61
Rp62
(dp63
g26
F0.5
sg27
I3
sg28
g29
((dp64
I00
I2
sI01
I1
stp65
Rp66
sg33
I2
sg34
F4.0
sbs(g11
S'weekend'
p67
tp68
g0
(g22
g2
Ntp69
Rp70
(dp71
g26
F0.5
sg27
I3
sg28
g29
((dp72
I00
I3
stp73
Rp74
sg33
I2
sg34
F4.0
sbs(g10
S'previous'
p75
tp76
g0
(g22
g2
Ntp77
Rp78
(dp79
g26
F0.5
sg27
I4
sg28
g29
((dp80
I00
I4
stp81
Rp82
sg33
I2
sg34
F5.0
sbs(g16
S'storming'
p83
tp84
g0
(g22
g2
Ntp85
Rp86
(dp87
g26
F0.5
sg27
I5
sg28
g29
((dp88
I00
I4
sI01
I1
stp89
Rp90
sg33
I2
sg34
F6.0
sbs(g17
S'rain'
p91
tp92
g0
(g22
g2
Ntp93
Rp94
(dp95
g26
F0.5
sg27
I3
sg28
g29
((dp96
I00
I2
sI01
I1
stp97
Rp98
sg33
I2
sg34
F4.0
sbs(g12
S'do'
p99
tp100
g0
(g22
g2
Ntp101
Rp102
(dp103
g26
F0.5
sg27
I3
sg28
g29
((dp104
I00
I3
stp105
Rp106
sg33
I2
sg34
F4.0
sbs(g14
S'build'
p107
tp108
g0
(g22
g2
Ntp109
Rp110
(dp111
g26
F0.5
sg27
I2
sg28
g29
((dp112
I00
I2
stp113
Rp114
sg33
I2
sg34
F3.0
sbs(g12
S'up'
p115
tp116
g0
(g22
g2
Ntp117
Rp118
(dp119
g26
F0.5
sg27
I3
sg28
g29
((dp120
I00
I2
sI01
I1
stp121
Rp122
sg33
I2
sg34
F4.0
sbs(g15
S'did'
p123
tp124
g0
(g22
g2
Ntp125
Rp126
(dp127
g26
F0.5
sg27
I3
sg28
g29
((dp128
I00
I3
stp129
Rp130
sg33
I2
sg34
F4.0
sbs(g17
S'with'
p131
tp132
g0
(g22
g2
Ntp133
Rp134
(dp135
g26
F0.5
sg27
I3
sg28
g29
((dp136
I00
I3
stp137
Rp138
sg33
I2
sg34
F4.0
sbs(g11
S'any'
p139
tp140
g0
(g22
g2
Ntp141
Rp142
(dp143
g26
F0.5
sg27
I3
sg28
g29
((dp144
I00
I3
stp145
Rp146
sg33
I2
sg34
F4.0
sbs(g8
S'close'
p147
tp148
g0
(g22
g2
Ntp149
Rp150
(dp151
g26
F0.5
sg27
I6
sg28
g29
((dp152
I00
I6
stp153
Rp154
sg33
I2
sg34
F7.0
sbs(g13
S'i'
p155
tp156
g0
(g22
g2
Ntp157
Rp158
(dp159
g26
F0.5
sg27
I3
sg28
g29
((dp160
I00
I3
stp161
Rp162
sg33
I2
sg34
F4.0
sbs(g8
S'existing'
p163
tp164
g0
(g22
g2
Ntp165
Rp166
(dp167
g26
F0.5
sg27
I6
sg28
g29
((dp168
I00
I6
stp169
Rp170
sg33
I2
sg34
F7.0
sbs(g9
S'weather'
p171
tp172
g0
(g22
g2
Ntp173
Rp174
(dp175
g26
F0.5
sg27
I3
sg28
g29
((dp176
I00
I3
stp177
Rp178
sg33
I2
sg34
F4.0
sbs(g9
S'is'
p179
tp180
g0
(g22
g2
Ntp181
Rp182
(dp183
g26
F0.5
sg27
I3
sg28
g29
((dp184
I00
I3
stp185
Rp186
sg33
I2
sg34
F4.0
sbs(g17
S'tomorrow'
p187
tp188
g0
(g22
g2
Ntp189
Rp190
(dp191
g26
F0.5
sg27
I3
sg28
g29
((dp192
I00
I2
sI01
I1
stp193
Rp194
sg33
I2
sg34
F4.0
sbs(g17
S'bad'
p195
tp196
g0
(g22
g2
Ntp197
Rp198
(dp199
g26
F0.5
sg27
I3
sg28
g29
((dp200
I00
I3
stp201
Rp202
sg33
I2
sg34
F4.0
sbs(g8
g91
tp203
g0
(g22
g2
Ntp204
Rp205
(dp206
g26
F0.5
sg27
I6
sg28
g29
((dp207
I00
I6
stp208
Rp209
sg33
I2
sg34
F7.0
sbs(g16
S'in'
p210
tp211
g0
(g22
g2
Ntp212
Rp213
(dp214
g26
F0.5
sg27
I5
sg28
g29
((dp215
I00
I5
stp216
Rp217
sg33
I2
sg34
F6.0
sbs(g12
g210
tp218
g0
(g22
g2
Ntp219
Rp220
(dp221
g26
F0.5
sg27
I3
sg28
g29
((dp222
I00
I3
stp223
Rp224
sg33
I2
sg34
F4.0
sbs(g11
S'it'
p225
tp226
g0
(g22
g2
Ntp227
Rp228
(dp229
g26
F0.5
sg27
I3
sg28
g29
((dp230
I00
I3
stp231
Rp232
sg33
I2
sg34
F4.0
sbs(g9
S'snowing'
p233
tp234
g0
(g22
g2
Ntp235
Rp236
(dp237
g26
F0.5
sg27
I3
sg28
g29
((dp238
I00
I3
stp239
Rp240
sg33
I2
sg34
F4.0
sbs(g11
S'what'
p241
tp242
g0
(g22
g2
Ntp243
Rp244
(dp245
g26
F0.5
sg27
I3
sg28
g29
((dp246
I00
I3
stp247
Rp248
sg33
I2
sg34
F4.0
sbs(g8
g155
tp249
g0
(g22
g2
Ntp250
Rp251
(dp252
g26
F0.5
sg27
I6
sg28
g29
((dp253
I00
I4
sI01
I2
stp254
Rp255
sg33
I2
sg34
F7.0
sbs(g11
S'raining'
p256
tp257
g0
(g22
g2
Ntp258
Rp259
(dp260
g26
F0.5
sg27
I3
sg28
g29
((dp261
I00
I3
stp262
Rp263
sg33
I2
sg34
F4.0
sbs(g16
S'happen'
p264
tp265
g0
(g22
g2
Ntp266
Rp267
(dp268
g26
F0.5
sg27
I5
sg28
g29
((dp269
I00
I5
stp270
Rp271
sg33
I2
sg34
F6.0
sbs(g14
S'how'
p272
tp273
g0
(g22
g2
Ntp274
Rp275
(dp276
g26
F0.5
sg27
I2
sg28
g29
((dp277
I00
I2
stp278
Rp279
sg33
I2
sg34
F3.0
sbs(g11
S'hard'
p280
tp281
g0
(g22
g2
Ntp282
Rp283
(dp284
g26
F0.5
sg27
I3
sg28
g29
((dp285
I00
I3
stp286
Rp287
sg33
I2
sg34
F4.0
sbs(g8
g272
tp288
g0
(g22
g2
Ntp289
Rp290
(dp291
g26
F0.5
sg27
I6
sg28
g29
((dp292
I00
I6
stp293
Rp294
sg33
I2
sg34
F7.0
sbs(g16
g171
tp295
g0
(g22
g2
Ntp296
Rp297
(dp298
g26
F0.5
sg27
I5
sg28
g29
((dp299
I00
I4
sI01
I1
stp300
Rp301
sg33
I2
sg34
F6.0
sbs(g17
g51
tp302
g0
(g22
g2
Ntp303
Rp304
(dp305
g26
F0.5
sg27
I3
sg28
g29
((dp306
I00
I3
stp307
Rp308
sg33
I2
sg34
F4.0
sbs(g8
g139
tp309
g0
(g22
g2
Ntp310
Rp311
(dp312
g26
F0.5
sg27
I6
sg28
g29
((dp313
I00
I4
sI01
I2
stp314
Rp315
sg33
I2
sg34
F7.0
sbs(g11
g115
tp316
g0
(g22
g2
Ntp317
Rp318
(dp319
g26
F0.5
sg27
I3
sg28
g29
((dp320
I00
I3
stp321
Rp322
sg33
I2
sg34
F4.0
sbs(g12
S'open'
p323
tp324
g0
(g22
g2
Ntp325
Rp326
(dp327
g26
F0.5
sg27
I3
sg28
g29
((dp328
I00
I3
stp329
Rp330
sg33
I2
sg34
F4.0
sbs(g8
S'new'
p331
tp332
g0
(g22
g2
Ntp333
Rp334
(dp335
g26
F0.5
sg27
I6
sg28
g29
((dp336
I00
I6
stp337
Rp338
sg33
I2
sg34
F7.0
sbs(g10
g99
tp339
g0
(g22
g2
Ntp340
Rp341
(dp342
g26
F0.5
sg27
I4
sg28
g29
((dp343
I00
I4
stp344
Rp345
sg33
I2
sg34
F5.0
sbs(g15
g75
tp346
g0
(g22
g2
Ntp347
Rp348
(dp349
g26
F0.5
sg27
I3
sg28
g29
((dp350
I00
I3
stp351
Rp352
sg33
I2
sg34
F4.0
sbs(g8
S'will'
p353
tp354
g0
(g22
g2
Ntp355
Rp356
(dp357
g26
F0.5
sg27
I6
sg28
g29
((dp358
I00
I6
stp359
Rp360
sg33
I2
sg34
F7.0
sbs(g12
S'storm'
p361
tp362
g0
(g22
g2
Ntp363
Rp364
(dp365
g26
F0.5
sg27
I3
sg28
g29
((dp366
I00
I3
stp367
Rp368
sg33
I2
sg34
F4.0
sbs(g15
S'the'
p369
tp370
g0
(g22
g2
Ntp371
Rp372
(dp373
g26
F0.5
sg27
I3
sg28
g29
((dp374
I00
I3
stp375
Rp376
sg33
I2
sg34
F4.0
sbs(g11
g179
tp377
g0
(g22
g2
Ntp378
Rp379
(dp380
g26
F0.5
sg27
I3
sg28
g29
((dp381
I00
I3
stp382
Rp383
sg33
I2
sg34
F4.0
sbs(g16
g59
tp384
g0
(g22
g2
Ntp385
Rp386
(dp387
g26
F0.5
sg27
I5
sg28
g29
((dp388
I00
I5
stp389
Rp390
sg33
I2
sg34
F6.0
sbs(g13
S'create'
p391
tp392
g0
(g22
g2
Ntp393
Rp394
(dp395
g26
F0.5
sg27
I3
sg28
g29
((dp396
I00
I3
stp397
Rp398
sg33
I2
sg34
F4.0
sbs(g15
S'rainy'
p399
tp400
g0
(g22
g2
Ntp401
Rp402
(dp403
g26
F0.5
sg27
I3
sg28
g29
((dp404
I00
I3
stp405
Rp406
sg33
I2
sg34
F4.0
sbs(g14
S'just'
p407
tp408
g0
(g22
g2
Ntp409
Rp410
(dp411
g26
F0.5
sg27
I2
sg28
g29
((dp412
I00
I2
stp413
Rp414
sg33
I2
sg34
F3.0
sbs(g11
g353
tp415
g0
(g22
g2
Ntp416
Rp417
(dp418
g26
F0.5
sg27
I3
sg28
g29
((dp419
I00
I3
stp420
Rp421
sg33
I2
sg34
F4.0
sbs(g14
g225
tp422
g0
(g22
g2
Ntp423
Rp424
(dp425
g26
F0.5
sg27
I2
sg28
g29
((dp426
I00
I2
stp427
Rp428
sg33
I2
sg34
F3.0
sbs(g17
g369
tp429
g0
(g22
g2
Ntp430
Rp431
(dp432
g26
F0.5
sg27
I3
sg28
g29
((dp433
I00
I3
stp434
Rp435
sg33
I2
sg34
F4.0
sbs(g10
g241
tp436
g0
(g22
g2
Ntp437
Rp438
(dp439
g26
F0.5
sg27
I4
sg28
g29
((dp440
I00
I3
sI01
I1
stp441
Rp442
sg33
I2
sg34
F5.0
sbs(g15
g331
tp443
g0
(g22
g2
Ntp444
Rp445
(dp446
g26
F0.5
sg27
I3
sg28
g29
((dp447
I00
I3
stp448
Rp449
sg33
I2
sg34
F4.0
sbs(g17
g399
tp450
g0
(g22
g2
Ntp451
Rp452
(dp453
g26
F0.5
sg27
I3
sg28
g29
((dp454
I00
I2
sI01
I1
stp455
Rp456
sg33
I2
sg34
F4.0
sbs(g8
g51
tp457
g0
(g22
g2
Ntp458
Rp459
(dp460
g26
F0.5
sg27
I6
sg28
g29
((dp461
I00
I6
stp462
Rp463
sg33
I2
sg34
F7.0
sbs(g8
g256
tp464
g0
(g22
g2
Ntp465
Rp466
(dp467
g26
F0.5
sg27
I6
sg28
g29
((dp468
I00
I6
stp469
Rp470
sg33
I2
sg34
F7.0
sbs(g14
g51
tp471
g0
(g22
g2
Ntp472
Rp473
(dp474
g26
F0.5
sg27
I2
sg28
g29
((dp475
I00
I2
stp476
Rp477
sg33
I2
sg34
F3.0
sbs(g12
g107
tp478
g0
(g22
g2
Ntp479
Rp480
(dp481
g26
F0.5
sg27
I3
sg28
g29
((dp482
I00
I3
stp483
Rp484
sg33
I2
sg34
F4.0
sbs(g10
g35
tp485
g0
(g22
g2
Ntp486
Rp487
(dp488
g26
F0.5
sg27
I4
sg28
g29
((dp489
I00
I4
stp490
Rp491
sg33
I2
sg34
F5.0
sbs(g14
S'project'
p492
tp493
g0
(g22
g2
Ntp494
Rp495
(dp496
g26
F0.5
sg27
I2
sg28
g29
((dp497
I01
I2
stp498
Rp499
sg33
I2
sg34
F3.0
sbs(g12
g171
tp500
g0
(g22
g2
Ntp501
Rp502
(dp503
g26
F0.5
sg27
I3
sg28
g29
((dp504
I00
I3
stp505
Rp506
sg33
I2
sg34
F4.0
sbs(g16
g361
tp507
g0
(g22
g2
Ntp508
Rp509
(dp510
g26
F0.5
sg27
I5
sg28
g29
((dp511
I00
I4
sI01
I1
stp512
Rp513
sg33
I2
sg34
F6.0
sbs(g15
S'clear'
p514
tp515
g0
(g22
g2
Ntp516
Rp517
(dp518
g26
F0.5
sg27
I3
sg28
g29
((dp519
I00
I3
stp520
Rp521
sg33
I2
sg34
F4.0
sbs(g12
S'me'
p522
tp523
g0
(g22
g2
Ntp524
Rp525
(dp526
g26
F0.5
sg27
I3
sg28
g29
((dp527
I00
I3
stp528
Rp529
sg33
I2
sg34
F4.0
sbs(g16
g353
tp530
g0
(g22
g2
Ntp531
Rp532
(dp533
g26
F0.5
sg27
I5
sg28
g29
((dp534
I00
I5
stp535
Rp536
sg33
I2
sg34
F6.0
sbs(g15
g233
tp537
g0
(g22
g2
Ntp538
Rp539
(dp540
g26
F0.5
sg27
I3
sg28
g29
((dp541
I00
I3
stp542
Rp543
sg33
I2
sg34
F4.0
sbs(g12
S'good'
p544
tp545
g0
(g22
g2
Ntp546
Rp547
(dp548
g26
F0.5
sg27
I3
sg28
g29
((dp549
I00
I2
sI01
I1
stp550
Rp551
sg33
I2
sg34
F4.0
sbs(g9
g83
tp552
g0
(g22
g2
Ntp553
Rp554
(dp555
g26
F0.5
sg27
I3
sg28
g29
((dp556
I00
I3
stp557
Rp558
sg33
I2
sg34
F4.0
sbs(g8
g35
tp559
g0
(g22
g2
Ntp560
Rp561
(dp562
g26
F0.5
sg27
I6
sg28
g29
((dp563
I00
I6
stp564
Rp565
sg33
I2
sg34
F7.0
sbs(g14
g280
tp566
g0
(g22
g2
Ntp567
Rp568
(dp569
g26
F0.5
sg27
I2
sg28
g29
((dp570
I00
I2
stp571
Rp572
sg33
I2
sg34
F3.0
sbs(g9
g59
tp573
g0
(g22
g2
Ntp574
Rp575
(dp576
g26
F0.5
sg27
I3
sg28
g29
((dp577
I00
I3
stp578
Rp579
sg33
I2
sg34
F4.0
sbs(g8
g369
tp580
g0
(g22
g2
Ntp581
Rp582
(dp583
g26
F0.5
sg27
I6
sg28
g29
((dp584
I00
I6
stp585
Rp586
sg33
I2
sg34
F7.0
sbs(g15
S'lets'
p587
tp588
g0
(g22
g2
Ntp589
Rp590
(dp591
g26
F0.5
sg27
I3
sg28
g29
((dp592
I00
I3
stp593
Rp594
sg33
I2
sg34
F4.0
sbs(g14
g522
tp595
g0
(g22
g2
Ntp596
Rp597
(dp598
g26
F0.5
sg27
I2
sg28
g29
((dp599
I00
I2
stp600
Rp601
sg33
I2
sg34
F3.0
sbs(g14
g99
tp602
g0
(g22
g2
Ntp603
Rp604
(dp605
g26
F0.5
sg27
I2
sg28
g29
((dp606
I00
I2
stp607
Rp608
sg33
I2
sg34
F3.0
sbs(g9
g522
tp609
g0
(g22
g2
Ntp610
Rp611
(dp612
g26
F0.5
sg27
I3
sg28
g29
((dp613
I00
I3
stp614
Rp615
sg33
I2
sg34
F4.0
sbs(g17
g256
tp616
g0
(g22
g2
Ntp617
Rp618
(dp619
g26
F0.5
sg27
I3
sg28
g29
((dp620
I00
I2
sI01
I1
stp621
Rp622
sg33
I2
sg34
F4.0
sbs(g12
S'events'
p623
tp624
g0
(g22
g2
Ntp625
Rp626
(dp627
g26
F0.5
sg27
I3
sg28
g29
((dp628
I00
I3
stp629
Rp630
sg33
I2
sg34
F4.0
sbs(g15
g225
tp631
g0
(g22
g2
Ntp632
Rp633
(dp634
g26
F0.5
sg27
I3
sg28
g29
((dp635
I00
I3
stp636
Rp637
sg33
I2
sg34
F4.0
sbs(g16
g99
tp638
g0
(g22
g2
Ntp639
Rp640
(dp641
g26
F0.5
sg27
I5
sg28
g29
((dp642
I00
I5
stp643
Rp644
sg33
I2
sg34
F6.0
sbs(g9
S'thunderstorm'
p645
tp646
g0
(g22
g2
Ntp647
Rp648
(dp649
g26
F0.5
sg27
I3
sg28
g29
((dp650
I00
I3
stp651
Rp652
sg33
I2
sg34
F4.0
sbs(g12
g83
tp653
g0
(g22
g2
Ntp654
Rp655
(dp656
g26
F0.5
sg27
I3
sg28
g29
((dp657
I00
I3
stp658
Rp659
sg33
I2
sg34
F4.0
sbs(g15
g391
tp660
g0
(g22
g2
Ntp661
Rp662
(dp663
g26
F0.5
sg27
I3
sg28
g29
((dp664
I00
I3
stp665
Rp666
sg33
I2
sg34
F4.0
sbs(g17
S'notifications'
p667
tp668
g0
(g22
g2
Ntp669
Rp670
(dp671
g26
F0.5
sg27
I3
sg28
g29
((dp672
I00
I3
stp673
Rp674
sg33
I2
sg34
F4.0
sbs(g8
S'show'
p675
tp676
g0
(g22
g2
Ntp677
Rp678
(dp679
g26
F0.5
sg27
I6
sg28
g29
((dp680
I00
I5
sI01
I1
stp681
Rp682
sg33
I2
sg34
F7.0
sbs(g11
S'have'
p683
tp684
g0
(g22
g2
Ntp685
Rp686
(dp687
g26
F0.5
sg27
I3
sg28
g29
((dp688
I00
I3
stp689
Rp690
sg33
I2
sg34
F4.0
sbs(g9
g123
tp691
g0
(g22
g2
Ntp692
Rp693
(dp694
g26
F0.5
sg27
I3
sg28
g29
((dp695
I00
I3
stp696
Rp697
sg33
I2
sg34
F4.0
sbs(g17
S'delete'
p698
tp699
g0
(g22
g2
Ntp700
Rp701
(dp702
g26
F0.5
sg27
I3
sg28
g29
((dp703
I00
I3
stp704
Rp705
sg33
I2
sg34
F4.0
sbs(g17
g391
tp706
g0
(g22
g2
Ntp707
Rp708
(dp709
g26
F0.5
sg27
I3
sg28
g29
((dp710
I00
I3
stp711
Rp712
sg33
I2
sg34
F4.0
sbs(g8
g514
tp713
g0
(g22
g2
Ntp714
Rp715
(dp716
g26
F0.5
sg27
I6
sg28
g29
((dp717
I00
I6
stp718
Rp719
sg33
I2
sg34
F7.0
sbs(g13
g323
tp720
g0
(g22
g2
Ntp721
Rp722
(dp723
g26
F0.5
sg27
I3
sg28
g29
((dp724
I00
I3
stp725
Rp726
sg33
I2
sg34
F4.0
sbs(g14
g514
tp727
g0
(g22
g2
Ntp728
Rp729
(dp730
g26
F0.5
sg27
I2
sg28
g29
((dp731
I00
I2
stp732
Rp733
sg33
I2
sg34
F3.0
sbs(g9
g264
tp734
g0
(g22
g2
Ntp735
Rp736
(dp737
g26
F0.5
sg27
I3
sg28
g29
((dp738
I00
I3
stp739
Rp740
sg33
I2
sg34
F4.0
sbs(g11
S'messages'
p741
tp742
g0
(g22
g2
Ntp743
Rp744
(dp745
g26
F0.5
sg27
I3
sg28
g29
((dp746
I00
I3
stp747
Rp748
sg33
I2
sg34
F4.0
sbs(g17
S'another'
p749
tp750
g0
(g22
g2
Ntp751
Rp752
(dp753
g26
F0.5
sg27
I3
sg28
g29
((dp754
I00
I3
stp755
Rp756
sg33
I2
sg34
F4.0
sbs(g13
g20
tp757
g0
(g22
g2
Ntp758
Rp759
(dp760
g26
F0.5
sg27
I3
sg28
g29
((dp761
I00
I3
stp762
Rp763
sg33
I2
sg34
F4.0
sbs(g11
g331
tp764
g0
(g22
g2
Ntp765
Rp766
(dp767
g26
F0.5
sg27
I3
sg28
g29
((dp768
I00
I3
stp769
Rp770
sg33
I2
sg34
F4.0
sbs(g12
g667
tp771
g0
(g22
g2
Ntp772
Rp773
(dp774
g26
F0.5
sg27
I3
sg28
g29
((dp775
I00
I3
stp776
Rp777
sg33
I2
sg34
F4.0
sbs(g16
S'snowy'
p778
tp779
g0
(g22
g2
Ntp780
Rp781
(dp782
g26
F0.5
sg27
I5
sg28
g29
((dp783
I00
I5
stp784
Rp785
sg33
I2
sg34
F6.0
sbs(g8
S'a'
p786
tp787
g0
(g22
g2
Ntp788
Rp789
(dp790
g26
F0.5
sg27
I6
sg28
g29
((dp791
I00
I6
stp792
Rp793
sg33
I2
sg34
F7.0
sbs(g11
S"'s"
p794
tp795
g0
(g22
g2
Ntp796
Rp797
(dp798
g26
F0.5
sg27
I3
sg28
g29
((dp799
I00
I3
stp800
Rp801
sg33
I2
sg34
F4.0
sbs(g14
g587
tp802
g0
(g22
g2
Ntp803
Rp804
(dp805
g26
F0.5
sg27
I2
sg28
g29
((dp806
I00
I2
stp807
Rp808
sg33
I2
sg34
F3.0
sbs(g10
g749
tp809
g0
(g22
g2
Ntp810
Rp811
(dp812
g26
F0.5
sg27
I4
sg28
g29
((dp813
I00
I4
stp814
Rp815
sg33
I2
sg34
F5.0
sbs(g8
g778
tp816
g0
(g22
g2
Ntp817
Rp818
(dp819
g26
F0.5
sg27
I6
sg28
g29
((dp820
I00
I6
stp821
Rp822
sg33
I2
sg34
F7.0
sbs(g13
g264
tp823
g0
(g22
g2
Ntp824
Rp825
(dp826
g26
F0.5
sg27
I3
sg28
g29
((dp827
I00
I3
stp828
Rp829
sg33
I2
sg34
F4.0
sbs(g17
S'snow'
p830
tp831
g0
(g22
g2
Ntp832
Rp833
(dp834
g26
F0.5
sg27
I3
sg28
g29
((dp835
I00
I3
stp836
Rp837
sg33
I2
sg34
F4.0
sbs(g8
g67
tp838
g0
(g22
g2
Ntp839
Rp840
(dp841
g26
F0.5
sg27
I6
sg28
g29
((dp842
I00
I6
stp843
Rp844
sg33
I2
sg34
F7.0
sbs(g11
g399
tp845
g0
(g22
g2
Ntp846
Rp847
(dp848
g26
F0.5
sg27
I3
sg28
g29
((dp849
I00
I3
stp850
Rp851
sg33
I2
sg34
F4.0
sbs(g11
g35
tp852
g0
(g22
g2
Ntp853
Rp854
(dp855
g26
F0.5
sg27
I3
sg28
g29
((dp856
I00
I2
sI01
I1
stp857
Rp858
sg33
I2
sg34
F4.0
sbs(g12
g91
tp859
g0
(g22
g2
Ntp860
Rp861
(dp862
g26
F0.5
sg27
I3
sg28
g29
((dp863
I00
I3
stp864
Rp865
sg33
I2
sg34
F4.0
sbs(g11
g786
tp866
g0
(g22
g2
Ntp867
Rp868
(dp869
g26
F0.5
sg27
I3
sg28
g29
((dp870
I00
I3
stp871
Rp872
sg33
I2
sg34
F4.0
sbs(g8
g391
tp873
g0
(g22
g2
Ntp874
Rp875
(dp876
g26
F0.5
sg27
I6
sg28
g29
((dp877
I00
I6
stp878
Rp879
sg33
I2
sg34
F7.0
sbs(g10
g698
tp880
g0
(g22
g2
Ntp881
Rp882
(dp883
g26
F0.5
sg27
I4
sg28
g29
((dp884
I00
I4
stp885
Rp886
sg33
I2
sg34
F5.0
sbs(g14
g698
tp887
g0
(g22
g2
Ntp888
Rp889
(dp890
g26
F0.5
sg27
I2
sg28
g29
((dp891
I00
I2
stp892
Rp893
sg33
I2
sg34
F3.0
sbs(g14
g391
tp894
g0
(g22
g2
Ntp895
Rp896
(dp897
g26
F0.5
sg27
I2
sg28
g29
((dp898
I00
I2
stp899
Rp900
sg33
I2
sg34
F3.0
sbs(g8
g123
tp901
g0
(g22
g2
Ntp902
Rp903
(dp904
g26
F0.5
sg27
I6
sg28
g29
((dp905
I00
I5
sI01
I1
stp906
Rp907
sg33
I2
sg34
F7.0
sbs(g12
g155
tp908
g0
(g22
g2
Ntp909
Rp910
(dp911
g26
F0.5
sg27
I3
sg28
g29
((dp912
I00
I2
sI01
I1
stp913
Rp914
sg33
I2
sg34
F4.0
sbs(g10
g43
tp915
g0
(g22
g2
Ntp916
Rp917
(dp918
g26
F0.5
sg27
I4
sg28
g29
((dp919
I00
I4
stp920
Rp921
sg33
I2
sg34
F5.0
sbs(g17
g741
tp922
g0
(g22
g2
Ntp923
Rp924
(dp925
g26
F0.5
sg27
I3
sg28
g29
((dp926
I00
I3
stp927
Rp928
sg33
I2
sg34
F4.0
sbs(g14
g749
tp929
g0
(g22
g2
Ntp930
Rp931
(dp932
g26
F0.5
sg27
I2
sg28
g29
((dp933
I00
I2
stp934
Rp935
sg33
I2
sg34
F3.0
sbs(g8
g187
tp936
g0
(g22
g2
Ntp937
Rp938
(dp939
g26
F0.5
sg27
I6
sg28
g29
((dp940
I00
I6
stp941
Rp942
sg33
I2
sg34
F7.0
sbs(g11
g514
tp943
g0
(g22
g2
Ntp944
Rp945
(dp946
g26
F0.5
sg27
I3
sg28
g29
((dp947
I00
I2
sI01
I1
stp948
Rp949
sg33
I2
sg34
F4.0
sbs(g11
g131
tp950
g0
(g22
g2
Ntp951
Rp952
(dp953
g26
F0.5
sg27
I3
sg28
g29
((dp954
I00
I2
sI01
I1
stp955
Rp956
sg33
I2
sg34
F4.0
sbs(g16
g786
tp957
g0
(g22
g2
Ntp958
Rp959
(dp960
g26
F0.5
sg27
I5
sg28
g29
((dp961
I00
I5
stp962
Rp963
sg33
I2
sg34
F6.0
sbs(g9
g587
tp964
g0
(g22
g2
Ntp965
Rp966
(dp967
g26
F0.5
sg27
I3
sg28
g29
((dp968
I00
I2
sI01
I1
stp969
Rp970
sg33
I2
sg34
F4.0
sbs(g13
g492
tp971
g0
(g22
g2
Ntp972
Rp973
(dp974
g26
F0.5
sg27
I3
sg28
g29
((dp975
I00
I3
stp976
Rp977
sg33
I2
sg34
F4.0
sbs(g13
g59
tp978
g0
(g22
g2
Ntp979
Rp980
(dp981
g26
F0.5
sg27
I3
sg28
g29
((dp982
I00
I3
stp983
Rp984
sg33
I2
sg34
F4.0
sbs(g9
g155
tp985
g0
(g22
g2
Ntp986
Rp987
(dp988
g26
F0.5
sg27
I3
sg28
g29
((dp989
I00
I3
stp990
Rp991
sg33
I2
sg34
F4.0
sbs(g11
g147
tp992
g0
(g22
g2
Ntp993
Rp994
(dp995
g26
F0.5
sg27
I3
sg28
g29
((dp996
I00
I3
stp997
Rp998
sg33
I2
sg34
F4.0
sbs(g16
g407
tp999
g0
(g22
g2
Ntp1000
Rp1001
(dp1002
g26
F0.5
sg27
I5
sg28
g29
((dp1003
I00
I5
stp1004
Rp1005
sg33
I2
sg34
F6.0
sbs(g17
g361
tp1006
g0
(g22
g2
Ntp1007
Rp1008
(dp1009
g26
F0.5
sg27
I3
sg28
g29
((dp1010
I00
I3
stp1011
Rp1012
sg33
I2
sg34
F4.0
sbs(g11
g187
tp1013
g0
(g22
g2
Ntp1014
Rp1015
(dp1016
g26
F0.5
sg27
I3
sg28
g29
((dp1017
I00
I3
stp1018
Rp1019
sg33
I2
sg34
F4.0
sbs(g11
g587
tp1020
g0
(g22
g2
Ntp1021
Rp1022
(dp1023
g26
F0.5
sg27
I3
sg28
g29
((dp1024
I00
I3
stp1025
Rp1026
sg33
I2
sg34
F4.0
sbs(g12
g51
tp1027
g0
(g22
g2
Ntp1028
Rp1029
(dp1030
g26
F0.5
sg27
I3
sg28
g29
((dp1031
I00
I2
sI01
I1
stp1032
Rp1033
sg33
I2
sg34
F4.0
sbs(g11
g195
tp1034
g0
(g22
g2
Ntp1035
Rp1036
(dp1037
g26
F0.5
sg27
I3
sg28
g29
((dp1038
I00
I3
stp1039
Rp1040
sg33
I2
sg34
F4.0
sbs(g17
g241
tp1041
g0
(g22
g2
Ntp1042
Rp1043
(dp1044
g26
F0.5
sg27
I3
sg28
g29
((dp1045
I00
I3
stp1046
Rp1047
sg33
I2
sg34
F4.0
sbs(g15
g323
tp1048
g0
(g22
g2
Ntp1049
Rp1050
(dp1051
g26
F0.5
sg27
I3
sg28
g29
((dp1052
I01
I3
stp1053
Rp1054
sg33
I2
sg34
F4.0
sbs(g8
g20
tp1055
g0
(g22
g2
Ntp1056
Rp1057
(dp1058
g26
F0.5
sg27
I6
sg28
g29
((dp1059
I00
I6
stp1060
Rp1061
sg33
I2
sg34
F7.0
sbs(g14
g544
tp1062
g0
(g22
g2
Ntp1063
Rp1064
(dp1065
g26
F0.5
sg27
I2
sg28
g29
((dp1066
I00
I2
stp1067
Rp1068
sg33
I2
sg34
F3.0
sbs(g11
g407
tp1069
g0
(g22
g2
Ntp1070
Rp1071
(dp1072
g26
F0.5
sg27
I3
sg28
g29
((dp1073
I00
I3
stp1074
Rp1075
sg33
I2
sg34
F4.0
sbs(g8
g683
tp1076
g0
(g22
g2
Ntp1077
Rp1078
(dp1079
g26
F0.5
sg27
I6
sg28
g29
((dp1080
I00
I5
sI01
I1
stp1081
Rp1082
sg33
I2
sg34
F7.0
sbs(g16
S'york'
p1083
tp1084
g0
(g22
g2
Ntp1085
Rp1086
(dp1087
g26
F0.5
sg27
I5
sg28
g29
((dp1088
I00
I5
stp1089
Rp1090
sg33
I2
sg34
F6.0
sbs(g10
S'this'
p1091
tp1092
g0
(g22
g2
Ntp1093
Rp1094
(dp1095
g26
F0.5
sg27
I4
sg28
g29
((dp1096
I00
I4
stp1097
Rp1098
sg33
I2
sg34
F5.0
sbs(g16
g667
tp1099
g0
(g22
g2
Ntp1100
Rp1101
(dp1102
g26
F0.5
sg27
I5
sg28
g29
((dp1103
I00
I5
stp1104
Rp1105
sg33
I2
sg34
F6.0
sbs(g9
S'morning'
p1106
tp1107
g0
(g22
g2
Ntp1108
Rp1109
(dp1110
g26
F0.5
sg27
I3
sg28
g29
((dp1111
I00
I3
stp1112
Rp1113
sg33
I2
sg34
F4.0
sbs(g8
g171
tp1114
g0
(g22
g2
Ntp1115
Rp1116
(dp1117
g26
F0.5
sg27
I6
sg28
g29
((dp1118
I00
I6
stp1119
Rp1120
sg33
I2
sg34
F7.0
sbs(g9
g830
tp1121
g0
(g22
g2
Ntp1122
Rp1123
(dp1124
g26
F0.5
sg27
I3
sg28
g29
((dp1125
I00
I3
stp1126
Rp1127
sg33
I2
sg34
F4.0
sbs(g8
g195
tp1128
g0
(g22
g2
Ntp1129
Rp1130
(dp1131
g26
F0.5
sg27
I6
sg28
g29
((dp1132
I00
I6
stp1133
Rp1134
sg33
I2
sg34
F7.0
sbs(g14
g147
tp1135
g0
(g22
g2
Ntp1136
Rp1137
(dp1138
g26
F0.5
sg27
I2
sg28
g29
((dp1139
I01
I2
stp1140
Rp1141
sg33
I2
sg34
F3.0
sbs(g11
g830
tp1142
g0
(g22
g2
Ntp1143
Rp1144
(dp1145
g26
F0.5
sg27
I3
sg28
g29
((dp1146
I00
I3
stp1147
Rp1148
sg33
I2
sg34
F4.0
sbs(g10
g256
tp1149
g0
(g22
g2
Ntp1150
Rp1151
(dp1152
g26
F0.5
sg27
I4
sg28
g29
((dp1153
I00
I4
stp1154
Rp1155
sg33
I2
sg34
F5.0
sbs(g10
g115
tp1156
g0
(g22
g2
Ntp1157
Rp1158
(dp1159
g26
F0.5
sg27
I4
sg28
g29
((dp1160
I00
I4
stp1161
Rp1162
sg33
I2
sg34
F5.0
sbs(g9
g20
tp1163
g0
(g22
g2
Ntp1164
Rp1165
(dp1166
g26
F0.5
sg27
I3
sg28
g29
((dp1167
I00
I3
stp1168
Rp1169
sg33
I2
sg34
F4.0
sbs(g8
g115
tp1170
g0
(g22
g2
Ntp1171
Rp1172
(dp1173
g26
F0.5
sg27
I6
sg28
g29
((dp1174
I00
I6
stp1175
Rp1176
sg33
I2
sg34
F7.0
sbs(g14
g163
tp1177
g0
(g22
g2
Ntp1178
Rp1179
(dp1180
g26
F0.5
sg27
I2
sg28
g29
((dp1181
I00
I2
stp1182
Rp1183
sg33
I2
sg34
F3.0
sbs(g10
g51
tp1184
g0
(g22
g2
Ntp1185
Rp1186
(dp1187
g26
F0.5
sg27
I4
sg28
g29
((dp1188
I00
I4
stp1189
Rp1190
sg33
I2
sg34
F5.0
sbs(g9
g749
tp1191
g0
(g22
g2
Ntp1192
Rp1193
(dp1194
g26
F0.5
sg27
I3
sg28
g29
((dp1195
I00
I3
stp1196
Rp1197
sg33
I2
sg34
F4.0
sbs(g17
g264
tp1198
g0
(g22
g2
Ntp1199
Rp1200
(dp1201
g26
F0.5
sg27
I3
sg28
g29
((dp1202
I00
I3
stp1203
Rp1204
sg33
I2
sg34
F4.0
sbs(g15
g20
tp1205
g0
(g22
g2
Ntp1206
Rp1207
(dp1208
g26
F0.5
sg27
I3
sg28
g29
((dp1209
I00
I3
stp1210
Rp1211
sg33
I2
sg34
F4.0
sbs(g12
g147
tp1212
g0
(g22
g2
Ntp1213
Rp1214
(dp1215
g26
F0.5
sg27
I3
sg28
g29
((dp1216
I00
I3
stp1217
Rp1218
sg33
I2
sg34
F4.0
sbs(g10
g225
tp1219
g0
(g22
g2
Ntp1220
Rp1221
(dp1222
g26
F0.5
sg27
I4
sg28
g29
((dp1223
I00
I4
stp1224
Rp1225
sg33
I2
sg34
F5.0
sbs(g10
g59
tp1226
g0
(g22
g2
Ntp1227
Rp1228
(dp1229
g26
F0.5
sg27
I4
sg28
g29
((dp1230
I00
I4
stp1231
Rp1232
sg33
I2
sg34
F5.0
sbs(g8
g83
tp1233
g0
(g22
g2
Ntp1234
Rp1235
(dp1236
g26
F0.5
sg27
I6
sg28
g29
((dp1237
I00
I6
stp1238
Rp1239
sg33
I2
sg34
F7.0
sbs(g9
g698
tp1240
g0
(g22
g2
Ntp1241
Rp1242
(dp1243
g26
F0.5
sg27
I3
sg28
g29
((dp1244
I00
I3
stp1245
Rp1246
sg33
I2
sg34
F4.0
sbs(g10
g407
tp1247
g0
(g22
g2
Ntp1248
Rp1249
(dp1250
g26
F0.5
sg27
I4
sg28
g29
((dp1251
I00
I4
stp1252
Rp1253
sg33
I2
sg34
F5.0
sbs(g8
g645
tp1254
g0
(g22
g2
Ntp1255
Rp1256
(dp1257
g26
F0.5
sg27
I6
sg28
g29
((dp1258
I00
I6
stp1259
Rp1260
sg33
I2
sg34
F7.0
sbs(g9
g667
tp1261
g0
(g22
g2
Ntp1262
Rp1263
(dp1264
g26
F0.5
sg27
I3
sg28
g29
((dp1265
I00
I3
stp1266
Rp1267
sg33
I2
sg34
F4.0
sbs(g8
g264
tp1268
g0
(g22
g2
Ntp1269
Rp1270
(dp1271
g26
F0.5
sg27
I6
sg28
g29
((dp1272
I00
I5
sI01
I1
stp1273
Rp1274
sg33
I2
sg34
F7.0
sbs(g12
g514
tp1275
g0
(g22
g2
Ntp1276
Rp1277
(dp1278
g26
F0.5
sg27
I3
sg28
g29
((dp1279
I00
I3
stp1280
Rp1281
sg33
I2
sg34
F4.0
sbs(g15
g195
tp1282
g0
(g22
g2
Ntp1283
Rp1284
(dp1285
g26
F0.5
sg27
I3
sg28
g29
((dp1286
I00
I3
stp1287
Rp1288
sg33
I2
sg34
F4.0
sbs(g17
g147
tp1289
g0
(g22
g2
Ntp1290
Rp1291
(dp1292
g26
F0.5
sg27
I3
sg28
g29
((dp1293
I00
I3
stp1294
Rp1295
sg33
I2
sg34
F4.0
sbs(g15
g667
tp1296
g0
(g22
g2
Ntp1297
Rp1298
(dp1299
g26
F0.5
sg27
I3
sg28
g29
((dp1300
I00
I3
stp1301
Rp1302
sg33
I2
sg34
F4.0
sbs(g8
g43
tp1303
g0
(g22
g2
Ntp1304
Rp1305
(dp1306
g26
F0.5
sg27
I6
sg28
g29
((dp1307
I00
I6
stp1308
Rp1309
sg33
I2
sg34
F7.0
sbs(g15
g59
tp1310
g0
(g22
g2
Ntp1311
Rp1312
(dp1313
g26
F0.5
sg27
I3
sg28
g29
((dp1314
I00
I3
stp1315
Rp1316
sg33
I2
sg34
F4.0
sbs(g11
g155
tp1317
g0
(g22
g2
Ntp1318
Rp1319
(dp1320
g26
F0.5
sg27
I3
sg28
g29
((dp1321
I00
I3
stp1322
Rp1323
sg33
I2
sg34
F4.0
sbs(g17
g59
tp1324
g0
(g22
g2
Ntp1325
Rp1326
(dp1327
g26
F0.5
sg27
I3
sg28
g29
((dp1328
I00
I3
stp1329
Rp1330
sg33
I2
sg34
F4.0
sbs(g14
g331
tp1331
g0
(g22
g2
Ntp1332
Rp1333
(dp1334
g26
F0.5
sg27
I2
sg28
g29
((dp1335
I00
I2
stp1336
Rp1337
sg33
I2
sg34
F3.0
sbs(g12
g399
tp1338
g0
(g22
g2
Ntp1339
Rp1340
(dp1341
g26
F0.5
sg27
I3
sg28
g29
((dp1342
I00
I3
stp1343
Rp1344
sg33
I2
sg34
F4.0
sbs(g9
g514
tp1345
g0
(g22
g2
Ntp1346
Rp1347
(dp1348
g26
F0.5
sg27
I3
sg28
g29
((dp1349
I00
I3
stp1350
Rp1351
sg33
I2
sg34
F4.0
sbs(g10
g264
tp1352
g0
(g22
g2
Ntp1353
Rp1354
(dp1355
g26
F0.5
sg27
I4
sg28
g29
((dp1356
I00
I4
stp1357
Rp1358
sg33
I2
sg34
F5.0
sbs(g15
g361
tp1359
g0
(g22
g2
Ntp1360
Rp1361
(dp1362
g26
F0.5
sg27
I3
sg28
g29
((dp1363
I00
I3
stp1364
Rp1365
sg33
I2
sg34
F4.0
sbs(g16
g155
tp1366
g0
(g22
g2
Ntp1367
Rp1368
(dp1369
g26
F0.5
sg27
I5
sg28
g29
((dp1370
I00
I5
stp1371
Rp1372
sg33
I2
sg34
F6.0
sbs(g15
g83
tp1373
g0
(g22
g2
Ntp1374
Rp1375
(dp1376
g26
F0.5
sg27
I3
sg28
g29
((dp1377
I00
I3
stp1378
Rp1379
sg33
I2
sg34
F4.0
sbs(g11
g667
tp1380
g0
(g22
g2
Ntp1381
Rp1382
(dp1383
g26
F0.5
sg27
I3
sg28
g29
((dp1384
I01
I3
stp1385
Rp1386
sg33
I2
sg34
F4.0
sbs(g8
g407
tp1387
g0
(g22
g2
Ntp1388
Rp1389
(dp1390
g26
F0.5
sg27
I6
sg28
g29
((dp1391
I00
I6
stp1392
Rp1393
sg33
I2
sg34
F7.0
sbs(g12
g331
tp1394
g0
(g22
g2
Ntp1395
Rp1396
(dp1397
g26
F0.5
sg27
I3
sg28
g29
((dp1398
I00
I3
stp1399
Rp1400
sg33
I2
sg34
F4.0
sbs(g13
g256
tp1401
g0
(g22
g2
Ntp1402
Rp1403
(dp1404
g26
F0.5
sg27
I3
sg28
g29
((dp1405
I00
I3
stp1406
Rp1407
sg33
I2
sg34
F4.0
sbs(g9
g786
tp1408
g0
(g22
g2
Ntp1409
Rp1410
(dp1411
g26
F0.5
sg27
I3
sg28
g29
((dp1412
I00
I1
sI01
I2
stp1413
Rp1414
sg33
I2
sg34
F4.0
sbs(g14
g353
tp1415
g0
(g22
g2
Ntp1416
Rp1417
(dp1418
g26
F0.5
sg27
I2
sg28
g29
((dp1419
I00
I2
stp1420
Rp1421
sg33
I2
sg34
F3.0
sbs(g9
g399
tp1422
g0
(g22
g2
Ntp1423
Rp1424
(dp1425
g26
F0.5
sg27
I3
sg28
g29
((dp1426
I00
I3
stp1427
Rp1428
sg33
I2
sg34
F4.0
sbs(g10
g171
tp1429
g0
(g22
g2
Ntp1430
Rp1431
(dp1432
g26
F0.5
sg27
I4
sg28
g29
((dp1433
I01
I4
stp1434
Rp1435
sg33
I2
sg34
F5.0
sbs(g17
g171
tp1436
g0
(g22
g2
Ntp1437
Rp1438
(dp1439
g26
F0.5
sg27
I3
sg28
g29
((dp1440
I00
I3
stp1441
Rp1442
sg33
I2
sg34
F4.0
sbs(g13
g587
tp1443
g0
(g22
g2
Ntp1444
Rp1445
(dp1446
g26
F0.5
sg27
I3
sg28
g29
((dp1447
I00
I3
stp1448
Rp1449
sg33
I2
sg34
F4.0
sbs(g9
g163
tp1450
g0
(g22
g2
Ntp1451
Rp1452
(dp1453
g26
F0.5
sg27
I3
sg28
g29
((dp1454
I00
I3
stp1455
Rp1456
sg33
I2
sg34
F4.0
sbs(g16
S'miss'
p1457
tp1458
g0
(g22
g2
Ntp1459
Rp1460
(dp1461
g26
F0.5
sg27
I5
sg28
g29
((dp1462
I00
I5
stp1463
Rp1464
sg33
I2
sg34
F6.0
sbs(g8
g59
tp1465
g0
(g22
g2
Ntp1466
Rp1467
(dp1468
g26
F0.5
sg27
I6
sg28
g29
((dp1469
I00
I6
stp1470
Rp1471
sg33
I2
sg34
F7.0
sbs(g8
g492
tp1472
g0
(g22
g2
Ntp1473
Rp1474
(dp1475
g26
F0.5
sg27
I6
sg28
g29
((dp1476
I00
I6
stp1477
Rp1478
sg33
I2
sg34
F7.0
sbs(g11
g749
tp1479
g0
(g22
g2
Ntp1480
Rp1481
(dp1482
g26
F0.5
sg27
I3
sg28
g29
((dp1483
I00
I3
stp1484
Rp1485
sg33
I2
sg34
F4.0
sbs(g17
g331
tp1486
g0
(g22
g2
Ntp1487
Rp1488
(dp1489
g26
F0.5
sg27
I3
sg28
g29
((dp1490
I00
I3
stp1491
Rp1492
sg33
I2
sg34
F4.0
sbs(g16
g195
tp1493
g0
(g22
g2
Ntp1494
Rp1495
(dp1496
g26
F0.5
sg27
I5
sg28
g29
((dp1497
I00
I4
sI01
I1
stp1498
Rp1499
sg33
I2
sg34
F6.0
sbs(g11
g43
tp1500
g0
(g22
g2
Ntp1501
Rp1502
(dp1503
g26
F0.5
sg27
I3
sg28
g29
((dp1504
I00
I3
stp1505
Rp1506
sg33
I2
sg34
F4.0
sbs(g15
g1457
tp1507
g0
(g22
g2
Ntp1508
Rp1509
(dp1510
g26
F0.5
sg27
I3
sg28
g29
((dp1511
I00
I3
stp1512
Rp1513
sg33
I2
sg34
F4.0
sbs(g13
g830
tp1514
g0
(g22
g2
Ntp1515
Rp1516
(dp1517
g26
F0.5
sg27
I3
sg28
g29
((dp1518
I00
I2
sI01
I1
stp1519
Rp1520
sg33
I2
sg34
F4.0
sbs(g15
g544
tp1521
g0
(g22
g2
Ntp1522
Rp1523
(dp1524
g26
F0.5
sg27
I3
sg28
g29
((dp1525
I00
I3
stp1526
Rp1527
sg33
I2
sg34
F4.0
sbs(g13
g407
tp1528
g0
(g22
g2
Ntp1529
Rp1530
(dp1531
g26
F0.5
sg27
I3
sg28
g29
((dp1532
I00
I3
stp1533
Rp1534
sg33
I2
sg34
F4.0
sbs(g13
g1091
tp1535
g0
(g22
g2
Ntp1536
Rp1537
(dp1538
g26
F0.5
sg27
I3
sg28
g29
((dp1539
I00
I3
stp1540
Rp1541
sg33
I2
sg34
F4.0
sbs(g17
g272
tp1542
g0
(g22
g2
Ntp1543
Rp1544
(dp1545
g26
F0.5
sg27
I3
sg28
g29
((dp1546
I00
I3
stp1547
Rp1548
sg33
I2
sg34
F4.0
sbs(g13
g645
tp1549
g0
(g22
g2
Ntp1550
Rp1551
(dp1552
g26
F0.5
sg27
I3
sg28
g29
((dp1553
I00
I3
stp1554
Rp1555
sg33
I2
sg34
F4.0
sbs(g14
g35
tp1556
g0
(g22
g2
Ntp1557
Rp1558
(dp1559
g26
F0.5
sg27
I2
sg28
g29
((dp1560
I00
I2
stp1561
Rp1562
sg33
I2
sg34
F3.0
sbs(g11
g83
tp1563
g0
(g22
g2
Ntp1564
Rp1565
(dp1566
g26
F0.5
sg27
I3
sg28
g29
((dp1567
I00
I3
stp1568
Rp1569
sg33
I2
sg34
F4.0
sbs(g12
g163
tp1570
g0
(g22
g2
Ntp1571
Rp1572
(dp1573
g26
F0.5
sg27
I3
sg28
g29
((dp1574
I00
I3
stp1575
Rp1576
sg33
I2
sg34
F4.0
sbs(g10
g147
tp1577
g0
(g22
g2
Ntp1578
Rp1579
(dp1580
g26
F0.5
sg27
I4
sg28
g29
((dp1581
I00
I4
stp1582
Rp1583
sg33
I2
sg34
F5.0
sbs(g9
g75
tp1584
g0
(g22
g2
Ntp1585
Rp1586
(dp1587
g26
F0.5
sg27
I3
sg28
g29
((dp1588
I00
I3
stp1589
Rp1590
sg33
I2
sg34
F4.0
sbs(g11
g698
tp1591
g0
(g22
g2
Ntp1592
Rp1593
(dp1594
g26
F0.5
sg27
I3
sg28
g29
((dp1595
I00
I2
sI01
I1
stp1596
Rp1597
sg33
I2
sg34
F4.0
sbs(g8
g522
tp1598
g0
(g22
g2
Ntp1599
Rp1600
(dp1601
g26
F0.5
sg27
I6
sg28
g29
((dp1602
I00
I5
sI01
I1
stp1603
Rp1604
sg33
I2
sg34
F7.0
sbs(g14
g75
tp1605
g0
(g22
g2
Ntp1606
Rp1607
(dp1608
g26
F0.5
sg27
I2
sg28
g29
((dp1609
I00
I2
stp1610
Rp1611
sg33
I2
sg34
F3.0
sbs(g8
g399
tp1612
g0
(g22
g2
Ntp1613
Rp1614
(dp1615
g26
F0.5
sg27
I6
sg28
g29
((dp1616
I00
I6
stp1617
Rp1618
sg33
I2
sg34
F7.0
sbs(g14
g83
tp1619
g0
(g22
g2
Ntp1620
Rp1621
(dp1622
g26
F0.5
sg27
I2
sg28
g29
((dp1623
I00
I2
stp1624
Rp1625
sg33
I2
sg34
F3.0
sbs(g13
g115
tp1626
g0
(g22
g2
Ntp1627
Rp1628
(dp1629
g26
F0.5
sg27
I3
sg28
g29
((dp1630
I00
I3
stp1631
Rp1632
sg33
I2
sg34
F4.0
sbs(g16
g623
tp1633
g0
(g22
g2
Ntp1634
Rp1635
(dp1636
g26
F0.5
sg27
I5
sg28
g29
((dp1637
I00
I5
stp1638
Rp1639
sg33
I2
sg34
F6.0
sbs(g10
g20
tp1640
g0
(g22
g2
Ntp1641
Rp1642
(dp1643
g26
F0.5
sg27
I4
sg28
g29
((dp1644
I00
I4
stp1645
Rp1646
sg33
I2
sg34
F5.0
sbs(g8
g131
tp1647
g0
(g22
g2
Ntp1648
Rp1649
(dp1650
g26
F0.5
sg27
I6
sg28
g29
((dp1651
I00
I6
stp1652
Rp1653
sg33
I2
sg34
F7.0
sbs(g11
g544
tp1654
g0
(g22
g2
Ntp1655
Rp1656
(dp1657
g26
F0.5
sg27
I3
sg28
g29
((dp1658
I00
I3
stp1659
Rp1660
sg33
I2
sg34
F4.0
sbs(g14
g131
tp1661
g0
(g22
g2
Ntp1662
Rp1663
(dp1664
g26
F0.5
sg27
I2
sg28
g29
((dp1665
I00
I2
stp1666
Rp1667
sg33
I2
sg34
F3.0
sbs(g10
g741
tp1668
g0
(g22
g2
Ntp1669
Rp1670
(dp1671
g26
F0.5
sg27
I4
sg28
g29
((dp1672
I00
I4
stp1673
Rp1674
sg33
I2
sg34
F5.0
sbs(g11
g522
tp1675
g0
(g22
g2
Ntp1676
Rp1677
(dp1678
g26
F0.5
sg27
I3
sg28
g29
((dp1679
I00
I3
stp1680
Rp1681
sg33
I2
sg34
F4.0
sbs(g14
g123
tp1682
g0
(g22
g2
Ntp1683
Rp1684
(dp1685
g26
F0.5
sg27
I2
sg28
g29
((dp1686
I00
I2
stp1687
Rp1688
sg33
I2
sg34
F3.0
sbs(g12
g75
tp1689
g0
(g22
g2
Ntp1690
Rp1691
(dp1692
g26
F0.5
sg27
I3
sg28
g29
((dp1693
I00
I3
stp1694
Rp1695
sg33
I2
sg34
F4.0
sbs(g16
g123
tp1696
g0
(g22
g2
Ntp1697
Rp1698
(dp1699
g26
F0.5
sg27
I5
sg28
g29
((dp1700
I00
I5
stp1701
Rp1702
sg33
I2
sg34
F6.0
sbs(g16
g683
tp1703
g0
(g22
g2
Ntp1704
Rp1705
(dp1706
g26
F0.5
sg27
I5
sg28
g29
((dp1707
I00
I5
stp1708
Rp1709
sg33
I2
sg34
F6.0
sbs(g11
g1106
tp1710
g0
(g22
g2
Ntp1711
Rp1712
(dp1713
g26
F0.5
sg27
I3
sg28
g29
((dp1714
I00
I3
stp1715
Rp1716
sg33
I2
sg34
F4.0
sbs(g17
g225
tp1717
g0
(g22
g2
Ntp1718
Rp1719
(dp1720
g26
F0.5
sg27
I3
sg28
g29
((dp1721
I01
I3
stp1722
Rp1723
sg33
I2
sg34
F4.0
sbs(g9
g187
tp1724
g0
(g22
g2
Ntp1725
Rp1726
(dp1727
g26
F0.5
sg27
I3
sg28
g29
((dp1728
I00
I3
stp1729
Rp1730
sg33
I2
sg34
F4.0
sbs(g14
g683
tp1731
g0
(g22
g2
Ntp1732
Rp1733
(dp1734
g26
F0.5
sg27
I2
sg28
g29
((dp1735
I00
I2
stp1736
Rp1737
sg33
I2
sg34
F3.0
sbs(g9
g99
tp1738
g0
(g22
g2
Ntp1739
Rp1740
(dp1741
g26
F0.5
sg27
I3
sg28
g29
((dp1742
I00
I3
stp1743
Rp1744
sg33
I2
sg34
F4.0
sbs(g14
g187
tp1745
g0
(g22
g2
Ntp1746
Rp1747
(dp1748
g26
F0.5
sg27
I2
sg28
g29
((dp1749
I00
I2
stp1750
Rp1751
sg33
I2
sg34
F3.0
sbs(g16
g675
tp1752
g0
(g22
g2
Ntp1753
Rp1754
(dp1755
g26
F0.5
sg27
I5
sg28
g29
((dp1756
I00
I5
stp1757
Rp1758
sg33
I2
sg34
F6.0
sbs(g16
g369
tp1759
g0
(g22
g2
Ntp1760
Rp1761
(dp1762
g26
F0.5
sg27
I5
sg28
g29
((dp1763
I00
I4
sI01
I1
stp1764
Rp1765
sg33
I2
sg34
F6.0
sbs(g12
g353
tp1766
g0
(g22
g2
Ntp1767
Rp1768
(dp1769
g26
F0.5
sg27
I3
sg28
g29
((dp1770
I00
I3
stp1771
Rp1772
sg33
I2
sg34
F4.0
sbs(g16
g522
tp1773
g0
(g22
g2
Ntp1774
Rp1775
(dp1776
g26
F0.5
sg27
I5
sg28
g29
((dp1777
I00
I5
stp1778
Rp1779
sg33
I2
sg34
F6.0
sbs(g9
g741
tp1780
g0
(g22
g2
Ntp1781
Rp1782
(dp1783
g26
F0.5
sg27
I3
sg28
g29
((dp1784
I00
I3
stp1785
Rp1786
sg33
I2
sg34
F4.0
sbs(g12
g179
tp1787
g0
(g22
g2
Ntp1788
Rp1789
(dp1790
g26
F0.5
sg27
I3
sg28
g29
((dp1791
I00
I3
stp1792
Rp1793
sg33
I2
sg34
F4.0
sbs(g15
g1091
tp1794
g0
(g22
g2
Ntp1795
Rp1796
(dp1797
g26
F0.5
sg27
I3
sg28
g29
((dp1798
I00
I3
stp1799
Rp1800
sg33
I2
sg34
F4.0
sbs(g8
g587
tp1801
g0
(g22
g2
Ntp1802
Rp1803
(dp1804
g26
F0.5
sg27
I6
sg28
g29
((dp1805
I00
I6
stp1806
Rp1807
sg33
I2
sg34
F7.0
sbs(g9
g131
tp1808
g0
(g22
g2
Ntp1809
Rp1810
(dp1811
g26
F0.5
sg27
I3
sg28
g29
((dp1812
I00
I3
stp1813
Rp1814
sg33
I2
sg34
F4.0
sbs(g17
g1091
tp1815
g0
(g22
g2
Ntp1816
Rp1817
(dp1818
g26
F0.5
sg27
I3
sg28
g29
((dp1819
I00
I3
stp1820
Rp1821
sg33
I2
sg34
F4.0
sbs(g11
g675
tp1822
g0
(g22
g2
Ntp1823
Rp1824
(dp1825
g26
F0.5
sg27
I3
sg28
g29
((dp1826
I00
I3
stp1827
Rp1828
sg33
I2
sg34
F4.0
sbs(g10
g323
tp1829
g0
(g22
g2
Ntp1830
Rp1831
(dp1832
g26
F0.5
sg27
I4
sg28
g29
((dp1833
I00
I4
stp1834
Rp1835
sg33
I2
sg34
F5.0
sbs(g15
g179
tp1836
g0
(g22
g2
Ntp1837
Rp1838
(dp1839
g26
F0.5
sg27
I3
sg28
g29
((dp1840
I00
I3
stp1841
Rp1842
sg33
I2
sg34
F4.0
sbs(g13
g369
tp1843
g0
(g22
g2
Ntp1844
Rp1845
(dp1846
g26
F0.5
sg27
I3
sg28
g29
((dp1847
I00
I3
stp1848
Rp1849
sg33
I2
sg34
F4.0
sbs(g12
g645
tp1850
g0
(g22
g2
Ntp1851
Rp1852
(dp1853
g26
F0.5
sg27
I3
sg28
g29
((dp1854
I00
I3
stp1855
Rp1856
sg33
I2
sg34
F4.0
sbs(g16
g43
tp1857
g0
(g22
g2
Ntp1858
Rp1859
(dp1860
g26
F0.5
sg27
I5
sg28
g29
((dp1861
I00
I4
sI01
I1
stp1862
Rp1863
sg33
I2
sg34
F6.0
sbs(g17
g179
tp1864
g0
(g22
g2
Ntp1865
Rp1866
(dp1867
g26
F0.5
sg27
I3
sg28
g29
((dp1868
I00
I1
sI01
I2
stp1869
Rp1870
sg33
I2
sg34
F4.0
sbs(g9
g43
tp1871
g0
(g22
g2
Ntp1872
Rp1873
(dp1874
g26
F0.5
sg27
I3
sg28
g29
((dp1875
I00
I3
stp1876
Rp1877
sg33
I2
sg34
F4.0
sbs(g9
g35
tp1878
g0
(g22
g2
Ntp1879
Rp1880
(dp1881
g26
F0.5
sg27
I3
sg28
g29
((dp1882
I00
I3
stp1883
Rp1884
sg33
I2
sg34
F4.0
sbs(g8
g749
tp1885
g0
(g22
g2
Ntp1886
Rp1887
(dp1888
g26
F0.5
sg27
I6
sg28
g29
((dp1889
I00
I6
stp1890
Rp1891
sg33
I2
sg34
F7.0
sbs(g13
g91
tp1892
g0
(g22
g2
Ntp1893
Rp1894
(dp1895
g26
F0.5
sg27
I3
sg28
g29
((dp1896
I00
I3
stp1897
Rp1898
sg33
I2
sg34
F4.0
sbs(g12
g256
tp1899
g0
(g22
g2
Ntp1900
Rp1901
(dp1902
g26
F0.5
sg27
I3
sg28
g29
((dp1903
I00
I3
stp1904
Rp1905
sg33
I2
sg34
F4.0
sbs(g14
g171
tp1906
g0
(g22
g2
Ntp1907
Rp1908
(dp1909
g26
F0.5
sg27
I2
sg28
g29
((dp1910
I00
I2
stp1911
Rp1912
sg33
I2
sg34
F3.0
sbs(g14
g91
tp1913
g0
(g22
g2
Ntp1914
Rp1915
(dp1916
g26
F0.5
sg27
I2
sg28
g29
((dp1917
I00
I2
stp1918
Rp1919
sg33
I2
sg34
F3.0
sbs(g9
g794
tp1920
g0
(g22
g2
Ntp1921
Rp1922
(dp1923
g26
F0.5
sg27
I3
sg28
g29
((dp1924
I00
I3
stp1925
Rp1926
sg33
I2
sg34
F4.0
sbs(g10
g1457
tp1927
g0
(g22
g2
Ntp1928
Rp1929
(dp1930
g26
F0.5
sg27
I4
sg28
g29
((dp1931
I00
I4
stp1932
Rp1933
sg33
I2
sg34
F5.0
sbs(g12
g241
tp1934
g0
(g22
g2
Ntp1935
Rp1936
(dp1937
g26
F0.5
sg27
I3
sg28
g29
((dp1938
I00
I3
stp1939
Rp1940
sg33
I2
sg34
F4.0
sbs(g14
g155
tp1941
g0
(g22
g2
Ntp1942
Rp1943
(dp1944
g26
F0.5
sg27
I2
sg28
g29
((dp1945
I00
I2
stp1946
Rp1947
sg33
I2
sg34
F3.0
sbs(g9
g353
tp1948
g0
(g22
g2
Ntp1949
Rp1950
(dp1951
g26
F0.5
sg27
I3
sg28
g29
((dp1952
I00
I3
stp1953
Rp1954
sg33
I2
sg34
F4.0
sbs(g15
g187
tp1955
g0
(g22
g2
Ntp1956
Rp1957
(dp1958
g26
F0.5
sg27
I3
sg28
g29
((dp1959
I00
I3
stp1960
Rp1961
sg33
I2
sg34
F4.0
sbs(g12
g1457
tp1962
g0
(g22
g2
Ntp1963
Rp1964
(dp1965
g26
F0.5
sg27
I3
sg28
g29
((dp1966
I00
I3
stp1967
Rp1968
sg33
I2
sg34
F4.0
sbs(g16
g391
tp1969
g0
(g22
g2
Ntp1970
Rp1971
(dp1972
g26
F0.5
sg27
I5
sg28
g29
((dp1973
I00
I5
stp1974
Rp1975
sg33
I2
sg34
F6.0
sbs(g9
g675
tp1976
g0
(g22
g2
Ntp1977
Rp1978
(dp1979
g26
F0.5
sg27
I3
sg28
g29
((dp1980
I00
I3
stp1981
Rp1982
sg33
I2
sg34
F4.0
sbs(g13
g171
tp1983
g0
(g22
g2
Ntp1984
Rp1985
(dp1986
g26
F0.5
sg27
I3
sg28
g29
((dp1987
I00
I3
stp1988
Rp1989
sg33
I2
sg34
F4.0
sbs(g15
g67
tp1990
g0
(g22
g2
Ntp1991
Rp1992
(dp1993
g26
F0.5
sg27
I3
sg28
g29
((dp1994
I00
I3
stp1995
Rp1996
sg33
I2
sg34
F4.0
sbs(g8
g179
tp1997
g0
(g22
g2
Ntp1998
Rp1999
(dp2000
g26
F0.5
sg27
I6
sg28
g29
((dp2001
I00
I6
stp2002
Rp2003
sg33
I2
sg34
F7.0
sbs(g13
g778
tp2004
g0
(g22
g2
Ntp2005
Rp2006
(dp2007
g26
F0.5
sg27
I3
sg28
g29
((dp2008
I00
I2
sI01
I1
stp2009
Rp2010
sg33
I2
sg34
F4.0
sbs(g14
g1091
tp2011
g0
(g22
g2
Ntp2012
Rp2013
(dp2014
g26
F0.5
sg27
I2
sg28
g29
((dp2015
I00
I1
sI01
I1
stp2016
Rp2017
sg33
I2
sg34
F3.0
sbs(g16
g1106
tp2018
g0
(g22
g2
Ntp2019
Rp2020
(dp2021
g26
F0.5
sg27
I5
sg28
g29
((dp2022
I00
I5
stp2023
Rp2024
sg33
I2
sg34
F6.0
sbs(g10
g514
tp2025
g0
(g22
g2
Ntp2026
Rp2027
(dp2028
g26
F0.5
sg27
I4
sg28
g29
((dp2029
I00
I4
stp2030
Rp2031
sg33
I2
sg34
F5.0
sbs(g13
g353
tp2032
g0
(g22
g2
Ntp2033
Rp2034
(dp2035
g26
F0.5
sg27
I3
sg28
g29
((dp2036
I00
I2
sI01
I1
stp2037
Rp2038
sg33
I2
sg34
F4.0
sbs(g11
g645
tp2039
g0
(g22
g2
Ntp2040
Rp2041
(dp2042
g26
F0.5
sg27
I3
sg28
g29
((dp2043
I00
I3
stp2044
Rp2045
sg33
I2
sg34
F4.0
sbs(g8
g233
tp2046
g0
(g22
g2
Ntp2047
Rp2048
(dp2049
g26
F0.5
sg27
I6
sg28
g29
((dp2050
I00
I6
stp2051
Rp2052
sg33
I2
sg34
F7.0
sbs(g14
g233
tp2053
g0
(g22
g2
Ntp2054
Rp2055
(dp2056
g26
F0.5
sg27
I2
sg28
g29
((dp2057
I00
I2
stp2058
Rp2059
sg33
I2
sg34
F3.0
sbs(g11
g99
tp2060
g0
(g22
g2
Ntp2061
Rp2062
(dp2063
g26
F0.5
sg27
I3
sg28
g29
((dp2064
I00
I3
stp2065
Rp2066
sg33
I2
sg34
F4.0
sbs(g12
g675
tp2067
g0
(g22
g2
Ntp2068
Rp2069
(dp2070
g26
F0.5
sg27
I3
sg28
g29
((dp2071
I00
I3
stp2072
Rp2073
sg33
I2
sg34
F4.0
sbs(g17
g280
tp2074
g0
(g22
g2
Ntp2075
Rp2076
(dp2077
g26
F0.5
sg27
I3
sg28
g29
((dp2078
I00
I3
stp2079
Rp2080
sg33
I2
sg34
F4.0
sbs(g15
g241
tp2081
g0
(g22
g2
Ntp2082
Rp2083
(dp2084
g26
F0.5
sg27
I3
sg28
g29
((dp2085
I00
I3
stp2086
Rp2087
sg33
I2
sg34
F4.0
sbs(g16
g233
tp2088
g0
(g22
g2
Ntp2089
Rp2090
(dp2091
g26
F0.5
sg27
I5
sg28
g29
((dp2092
I00
I5
stp2093
Rp2094
sg33
I2
sg34
F6.0
sbs(g11
g59
tp2095
g0
(g22
g2
Ntp2096
Rp2097
(dp2098
g26
F0.5
sg27
I3
sg28
g29
((dp2099
I00
I3
stp2100
Rp2101
sg33
I2
sg34
F4.0
sbs(g10
g83
tp2102
g0
(g22
g2
Ntp2103
Rp2104
(dp2105
g26
F0.5
sg27
I4
sg28
g29
((dp2106
I00
I4
stp2107
Rp2108
sg33
I2
sg34
F5.0
sbs(g10
g399
tp2109
g0
(g22
g2
Ntp2110
Rp2111
(dp2112
g26
F0.5
sg27
I4
sg28
g29
((dp2113
I00
I4
stp2114
Rp2115
sg33
I2
sg34
F5.0
sbs(g16
g75
tp2116
g0
(g22
g2
Ntp2117
Rp2118
(dp2119
g26
F0.5
sg27
I5
sg28
g29
((dp2120
I00
I5
stp2121
Rp2122
sg33
I2
sg34
F6.0
sbs(g10
g830
tp2123
g0
(g22
g2
Ntp2124
Rp2125
(dp2126
g26
F0.5
sg27
I4
sg28
g29
((dp2127
I00
I4
stp2128
Rp2129
sg33
I2
sg34
F5.0
sbs(g10
g369
tp2130
g0
(g22
g2
Ntp2131
Rp2132
(dp2133
g26
F0.5
sg27
I4
sg28
g29
((dp2134
I00
I2
sI01
I2
stp2135
Rp2136
sg33
I2
sg34
F5.0
sbs(g9
g544
tp2137
g0
(g22
g2
Ntp2138
Rp2139
(dp2140
g26
F0.5
sg27
I3
sg28
g29
((dp2141
I00
I3
stp2142
Rp2143
sg33
I2
sg34
F4.0
sbs(g16
g115
tp2144
g0
(g22
g2
Ntp2145
Rp2146
(dp2147
g26
F0.5
sg27
I5
sg28
g29
((dp2148
I00
I5
stp2149
Rp2150
sg33
I2
sg34
F6.0
sbs(g17
g675
tp2151
g0
(g22
g2
Ntp2152
Rp2153
(dp2154
g26
F0.5
sg27
I3
sg28
g29
((dp2155
I00
I3
stp2156
Rp2157
sg33
I2
sg34
F4.0
sbs(g14
g667
tp2158
g0
(g22
g2
Ntp2159
Rp2160
(dp2161
g26
F0.5
sg27
I2
sg28
g29
((dp2162
I00
I2
stp2163
Rp2164
sg33
I2
sg34
F3.0
sbs(g13
g786
tp2165
g0
(g22
g2
Ntp2166
Rp2167
(dp2168
g26
F0.5
sg27
I3
sg28
g29
((dp2169
I00
I3
stp2170
Rp2171
sg33
I2
sg34
F4.0
sbs(g10
g163
tp2172
g0
(g22
g2
Ntp2173
Rp2174
(dp2175
g26
F0.5
sg27
I4
sg28
g29
((dp2176
I00
I4
stp2177
Rp2178
sg33
I2
sg34
F5.0
sbs(g14
g1083
tp2179
g0
(g22
g2
Ntp2180
Rp2181
(dp2182
g26
F0.5
sg27
I2
sg28
g29
((dp2183
I00
I2
stp2184
Rp2185
sg33
I2
sg34
F3.0
sbs(g15
g675
tp2186
g0
(g22
g2
Ntp2187
Rp2188
(dp2189
g26
F0.5
sg27
I3
sg28
g29
((dp2190
I00
I3
stp2191
Rp2192
sg33
I2
sg34
F4.0
sbs(g15
g272
tp2193
g0
(g22
g2
Ntp2194
Rp2195
(dp2196
g26
F0.5
sg27
I3
sg28
g29
((dp2197
I00
I3
stp2198
Rp2199
sg33
I2
sg34
F4.0
sbs(g8
g1083
tp2200
g0
(g22
g2
Ntp2201
Rp2202
(dp2203
g26
F0.5
sg27
I6
sg28
g29
((dp2204
I00
I6
stp2205
Rp2206
sg33
I2
sg34
F7.0
sbs(g11
g75
tp2207
g0
(g22
g2
Ntp2208
Rp2209
(dp2210
g26
F0.5
sg27
I3
sg28
g29
((dp2211
I00
I3
stp2212
Rp2213
sg33
I2
sg34
F4.0
sbs(g10
g667
tp2214
g0
(g22
g2
Ntp2215
Rp2216
(dp2217
g26
F0.5
sg27
I4
sg28
g29
((dp2218
I00
I4
stp2219
Rp2220
sg33
I2
sg34
F5.0
sbs(g16
g163
tp2221
g0
(g22
g2
Ntp2222
Rp2223
(dp2224
g26
F0.5
sg27
I5
sg28
g29
((dp2225
I00
I5
stp2226
Rp2227
sg33
I2
sg34
F6.0
sbs(g10
g623
tp2228
g0
(g22
g2
Ntp2229
Rp2230
(dp2231
g26
F0.5
sg27
I4
sg28
g29
((dp2232
I00
I4
stp2233
Rp2234
sg33
I2
sg34
F5.0
sbs(g16
g91
tp2235
g0
(g22
g2
Ntp2236
Rp2237
(dp2238
g26
F0.5
sg27
I5
sg28
g29
((dp2239
I00
I5
stp2240
Rp2241
sg33
I2
sg34
F6.0
sbs(g14
g645
tp2242
g0
(g22
g2
Ntp2243
Rp2244
(dp2245
g26
F0.5
sg27
I2
sg28
g29
((dp2246
I00
I2
stp2247
Rp2248
sg33
I2
sg34
F3.0
sbs(g14
g369
tp2249
g0
(g22
g2
Ntp2250
Rp2251
(dp2252
g26
F0.5
sg27
I2
sg28
g29
((dp2253
I00
I2
stp2254
Rp2255
sg33
I2
sg34
F3.0
sbs(g12
g741
tp2256
g0
(g22
g2
Ntp2257
Rp2258
(dp2259
g26
F0.5
sg27
I3
sg28
g29
((dp2260
I00
I3
stp2261
Rp2262
sg33
I2
sg34
F4.0
sbs(g8
g75
tp2263
g0
(g22
g2
Ntp2264
Rp2265
(dp2266
g26
F0.5
sg27
I6
sg28
g29
((dp2267
I00
I5
sI01
I1
stp2268
Rp2269
sg33
I2
sg34
F7.0
sbs(g8
g107
tp2270
g0
(g22
g2
Ntp2271
Rp2272
(dp2273
g26
F0.5
sg27
I6
sg28
g29
((dp2274
I00
I6
stp2275
Rp2276
sg33
I2
sg34
F7.0
sbs(g15
g353
tp2277
g0
(g22
g2
Ntp2278
Rp2279
(dp2280
g26
F0.5
sg27
I3
sg28
g29
((dp2281
I00
I3
stp2282
Rp2283
sg33
I2
sg34
F4.0
sbs(g14
g399
tp2284
g0
(g22
g2
Ntp2285
Rp2286
(dp2287
g26
F0.5
sg27
I2
sg28
g29
((dp2288
I00
I2
stp2289
Rp2290
sg33
I2
sg34
F3.0
sbs(g15
g264
tp2291
g0
(g22
g2
Ntp2292
Rp2293
(dp2294
g26
F0.5
sg27
I3
sg28
g29
((dp2295
I00
I3
stp2296
Rp2297
sg33
I2
sg34
F4.0
sbs(g8
g99
tp2298
g0
(g22
g2
Ntp2299
Rp2300
(dp2301
g26
F0.5
sg27
I6
sg28
g29
((dp2302
I00
I5
sI01
I1
stp2303
Rp2304
sg33
I2
sg34
F7.0
sbs(g16
g280
tp2305
g0
(g22
g2
Ntp2306
Rp2307
(dp2308
g26
F0.5
sg27
I5
sg28
g29
((dp2309
I00
I4
sI01
I1
stp2310
Rp2311
sg33
I2
sg34
F6.0
sbs(g16
g241
tp2312
g0
(g22
g2
Ntp2313
Rp2314
(dp2315
g26
F0.5
sg27
I5
sg28
g29
((dp2316
I00
I5
stp2317
Rp2318
sg33
I2
sg34
F6.0
sbs(g17
g353
tp2319
g0
(g22
g2
Ntp2320
Rp2321
(dp2322
g26
F0.5
sg27
I3
sg28
g29
((dp2323
I00
I2
sI01
I1
stp2324
Rp2325
sg33
I2
sg34
F4.0
sbs(g11
g163
tp2326
g0
(g22
g2
Ntp2327
Rp2328
(dp2329
g26
F0.5
sg27
I3
sg28
g29
((dp2330
I00
I3
stp2331
Rp2332
sg33
I2
sg34
F4.0
sbs(g10
g233
tp2333
g0
(g22
g2
Ntp2334
Rp2335
(dp2336
g26
F0.5
sg27
I4
sg28
g29
((dp2337
I00
I4
stp2338
Rp2339
sg33
I2
sg34
F5.0
sbs(g9
g1091
tp2340
g0
(g22
g2
Ntp2341
Rp2342
(dp2343
g26
F0.5
sg27
I3
sg28
g29
((dp2344
I00
I3
stp2345
Rp2346
sg33
I2
sg34
F4.0
sbs(g15
g778
tp2347
g0
(g22
g2
Ntp2348
Rp2349
(dp2350
g26
F0.5
sg27
I3
sg28
g29
((dp2351
I00
I3
stp2352
Rp2353
sg33
I2
sg34
F4.0
sbs(g17
g1083
tp2354
g0
(g22
g2
Ntp2355
Rp2356
(dp2357
g26
F0.5
sg27
I3
sg28
g29
((dp2358
I00
I3
stp2359
Rp2360
sg33
I2
sg34
F4.0
sbs(g13
g280
tp2361
g0
(g22
g2
Ntp2362
Rp2363
(dp2364
g26
F0.5
sg27
I3
sg28
g29
((dp2365
I00
I3
stp2366
Rp2367
sg33
I2
sg34
F4.0
sbs(g15
g115
tp2368
g0
(g22
g2
Ntp2369
Rp2370
(dp2371
g26
F0.5
sg27
I3
sg28
g29
((dp2372
I00
I3
stp2373
Rp2374
sg33
I2
sg34
F4.0
sbs(g15
g256
tp2375
g0
(g22
g2
Ntp2376
Rp2377
(dp2378
g26
F0.5
sg27
I3
sg28
g29
((dp2379
I00
I3
stp2380
Rp2381
sg33
I2
sg34
F4.0
sbs(g12
g43
tp2382
g0
(g22
g2
Ntp2383
Rp2384
(dp2385
g26
F0.5
sg27
I3
sg28
g29
((dp2386
I00
I3
stp2387
Rp2388
sg33
I2
sg34
F4.0
sbs(g15
g1083
tp2389
g0
(g22
g2
Ntp2390
Rp2391
(dp2392
g26
F0.5
sg27
I3
sg28
g29
((dp2393
I00
I3
stp2394
Rp2395
sg33
I2
sg34
F4.0
sbs(g12
g20
tp2396
g0
(g22
g2
Ntp2397
Rp2398
(dp2399
g26
F0.5
sg27
I3
sg28
g29
((dp2400
I00
I2
sI01
I1
stp2401
Rp2402
sg33
I2
sg34
F4.0
sbs(g15
g171
tp2403
g0
(g22
g2
Ntp2404
Rp2405
(dp2406
g26
F0.5
sg27
I3
sg28
g29
((dp2407
I00
I3
stp2408
Rp2409
sg33
I2
sg34
F4.0
sbs(g12
g749
tp2410
g0
(g22
g2
Ntp2411
Rp2412
(dp2413
g26
F0.5
sg27
I3
sg28
g29
((dp2414
I00
I3
stp2415
Rp2416
sg33
I2
sg34
F4.0
sbs(g13
g241
tp2417
g0
(g22
g2
Ntp2418
Rp2419
(dp2420
g26
F0.5
sg27
I3
sg28
g29
((dp2421
I00
I3
stp2422
Rp2423
sg33
I2
sg34
F4.0
sbs(g13
g35
tp2424
g0
(g22
g2
Ntp2425
Rp2426
(dp2427
g26
F0.5
sg27
I3
sg28
g29
((dp2428
I00
I3
stp2429
Rp2430
sg33
I2
sg34
F4.0
sbs(g17
g99
tp2431
g0
(g22
g2
Ntp2432
Rp2433
(dp2434
g26
F0.5
sg27
I3
sg28
g29
((dp2435
I00
I3
stp2436
Rp2437
sg33
I2
sg34
F4.0
sbs(g15
g645
tp2438
g0
(g22
g2
Ntp2439
Rp2440
(dp2441
g26
F0.5
sg27
I3
sg28
g29
((dp2442
I00
I3
stp2443
Rp2444
sg33
I2
sg34
F4.0
sbs(g9
g225
tp2445
g0
(g22
g2
Ntp2446
Rp2447
(dp2448
g26
F0.5
sg27
I3
sg28
g29
((dp2449
I00
I3
stp2450
Rp2451
sg33
I2
sg34
F4.0
sbs(g15
g107
tp2452
g0
(g22
g2
Ntp2453
Rp2454
(dp2455
g26
F0.5
sg27
I3
sg28
g29
((dp2456
I00
I3
stp2457
Rp2458
sg33
I2
sg34
F4.0
sbs(g17
g1106
tp2459
g0
(g22
g2
Ntp2460
Rp2461
(dp2462
g26
F0.5
sg27
I3
sg28
g29
((dp2463
I00
I3
stp2464
Rp2465
sg33
I2
sg34
F4.0
sbs(g16
g67
tp2466
g0
(g22
g2
Ntp2467
Rp2468
(dp2469
g26
F0.5
sg27
I5
sg28
g29
((dp2470
I00
I5
stp2471
Rp2472
sg33
I2
sg34
F6.0
sbs(g10
g155
tp2473
g0
(g22
g2
Ntp2474
Rp2475
(dp2476
g26
F0.5
sg27
I4
sg28
g29
((dp2477
I00
I4
stp2478
Rp2479
sg33
I2
sg34
F5.0
sbs(g16
g698
tp2480
g0
(g22
g2
Ntp2481
Rp2482
(dp2483
g26
F0.5
sg27
I5
sg28
g29
((dp2484
I00
I5
stp2485
Rp2486
sg33
I2
sg34
F6.0
sbs(g14
g67
tp2487
g0
(g22
g2
Ntp2488
Rp2489
(dp2490
g26
F0.5
sg27
I2
sg28
g29
((dp2491
I00
I2
stp2492
Rp2493
sg33
I2
sg34
F3.0
sbs(g14
g210
tp2494
g0
(g22
g2
Ntp2495
Rp2496
(dp2497
g26
F0.5
sg27
I2
sg28
g29
((dp2498
I00
I2
stp2499
Rp2500
sg33
I2
sg34
F3.0
sbs(g12
g272
tp2501
g0
(g22
g2
Ntp2502
Rp2503
(dp2504
g26
F0.5
sg27
I3
sg28
g29
((dp2505
I00
I3
stp2506
Rp2507
sg33
I2
sg34
F4.0
sbs(g8
g210
tp2508
g0
(g22
g2
Ntp2509
Rp2510
(dp2511
g26
F0.5
sg27
I6
sg28
g29
((dp2512
I00
I6
stp2513
Rp2514
sg33
I2
sg34
F7.0
sbs(g13
g131
tp2515
g0
(g22
g2
Ntp2516
Rp2517
(dp2518
g26
F0.5
sg27
I3
sg28
g29
((dp2519
I00
I3
stp2520
Rp2521
sg33
I2
sg34
F4.0
sbs(g11
g171
tp2522
g0
(g22
g2
Ntp2523
Rp2524
(dp2525
g26
F0.5
sg27
I3
sg28
g29
((dp2526
I00
I3
stp2527
Rp2528
sg33
I2
sg34
F4.0
sbs(g16
g749
tp2529
g0
(g22
g2
Ntp2530
Rp2531
(dp2532
g26
F0.5
sg27
I5
sg28
g29
((dp2533
I00
I5
stp2534
Rp2535
sg33
I2
sg34
F6.0
sbs(g8
g794
tp2536
g0
(g22
g2
Ntp2537
Rp2538
(dp2539
g26
F0.5
sg27
I6
sg28
g29
((dp2540
I00
I6
stp2541
Rp2542
sg33
I2
sg34
F7.0
sbs(g16
g139
tp2543
g0
(g22
g2
Ntp2544
Rp2545
(dp2546
g26
F0.5
sg27
I5
sg28
g29
((dp2547
I00
I5
stp2548
Rp2549
sg33
I2
sg34
F6.0
sbs(g9
g139
tp2550
g0
(g22
g2
Ntp2551
Rp2552
(dp2553
g26
F0.5
sg27
I3
sg28
g29
((dp2554
I00
I3
stp2555
Rp2556
sg33
I2
sg34
F4.0
sbs(g10
g778
tp2557
g0
(g22
g2
Ntp2558
Rp2559
(dp2560
g26
F0.5
sg27
I4
sg28
g29
((dp2561
I00
I4
stp2562
Rp2563
sg33
I2
sg34
F5.0
sbs(g12
g587
tp2564
g0
(g22
g2
Ntp2565
Rp2566
(dp2567
g26
F0.5
sg27
I3
sg28
g29
((dp2568
I00
I3
stp2569
Rp2570
sg33
I2
sg34
F4.0
sbs(g14
g139
tp2571
g0
(g22
g2
Ntp2572
Rp2573
(dp2574
g26
F0.5
sg27
I2
sg28
g29
((dp2575
I00
I2
stp2576
Rp2577
sg33
I2
sg34
F3.0
sbs(g14
g741
tp2578
g0
(g22
g2
Ntp2579
Rp2580
(dp2581
g26
F0.5
sg27
I2
sg28
g29
((dp2582
I00
I2
stp2583
Rp2584
sg33
I2
sg34
F3.0
sbs(g8
g1106
tp2585
g0
(g22
g2
Ntp2586
Rp2587
(dp2588
g26
F0.5
sg27
I6
sg28
g29
((dp2589
I00
I6
stp2590
Rp2591
sg33
I2
sg34
F7.0
sbs(g15
g683
tp2592
g0
(g22
g2
Ntp2593
Rp2594
(dp2595
g26
F0.5
sg27
I3
sg28
g29
((dp2596
I00
I3
stp2597
Rp2598
sg33
I2
sg34
F4.0
sbs(g9
g272
tp2599
g0
(g22
g2
Ntp2600
Rp2601
(dp2602
g26
F0.5
sg27
I3
sg28
g29
((dp2603
I00
I3
stp2604
Rp2605
sg33
I2
sg34
F4.0
sbs(g17
g210
tp2606
g0
(g22
g2
Ntp2607
Rp2608
(dp2609
g26
F0.5
sg27
I3
sg28
g29
((dp2610
I00
I3
stp2611
Rp2612
sg33
I2
sg34
F4.0
sbs(g13
g1083
tp2613
g0
(g22
g2
Ntp2614
Rp2615
(dp2616
g26
F0.5
sg27
I3
sg28
g29
((dp2617
I00
I3
stp2618
Rp2619
sg33
I2
sg34
F4.0
sbs(g9
g67
tp2620
g0
(g22
g2
Ntp2621
Rp2622
(dp2623
g26
F0.5
sg27
I3
sg28
g29
((dp2624
I00
I3
stp2625
Rp2626
sg33
I2
sg34
F4.0
sbs(g16
g225
tp2627
g0
(g22
g2
Ntp2628
Rp2629
(dp2630
g26
F0.5
sg27
I5
sg28
g29
((dp2631
I00
I5
stp2632
Rp2633
sg33
I2
sg34
F6.0
sbs(g9
g331
tp2634
g0
(g22
g2
Ntp2635
Rp2636
(dp2637
g26
F0.5
sg27
I3
sg28
g29
((dp2638
I01
I3
stp2639
Rp2640
sg33
I2
sg34
F4.0
sbs(g15
g786
tp2641
g0
(g22
g2
Ntp2642
Rp2643
(dp2644
g26
F0.5
sg27
I3
sg28
g29
((dp2645
I00
I3
stp2646
Rp2647
sg33
I2
sg34
F4.0
sbs(g12
g280
tp2648
g0
(g22
g2
Ntp2649
Rp2650
(dp2651
g26
F0.5
sg27
I3
sg28
g29
((dp2652
I00
I3
stp2653
Rp2654
sg33
I2
sg34
F4.0
sbs(g17
g163
tp2655
g0
(g22
g2
Ntp2656
Rp2657
(dp2658
g26
F0.5
sg27
I3
sg28
g29
((dp2659
I00
I3
stp2660
Rp2661
sg33
I2
sg34
F4.0
sbs(g10
g675
tp2662
g0
(g22
g2
Ntp2663
Rp2664
(dp2665
g26
F0.5
sg27
I4
sg28
g29
((dp2666
I00
I4
stp2667
Rp2668
sg33
I2
sg34
F5.0
sbs(g17
g786
tp2669
g0
(g22
g2
Ntp2670
Rp2671
(dp2672
g26
F0.5
sg27
I3
sg28
g29
((dp2673
I00
I3
stp2674
Rp2675
sg33
I2
sg34
F4.0
sbs(g15
g163
tp2676
g0
(g22
g2
Ntp2677
Rp2678
(dp2679
g26
F0.5
sg27
I3
sg28
g29
((dp2680
I00
I2
sI01
I1
stp2681
Rp2682
sg33
I2
sg34
F4.0
sbs(g15
g794
tp2683
g0
(g22
g2
Ntp2684
Rp2685
(dp2686
g26
F0.5
sg27
I3
sg28
g29
((dp2687
I00
I3
stp2688
Rp2689
sg33
I2
sg34
F4.0
sbs(g17
g75
tp2690
g0
(g22
g2
Ntp2691
Rp2692
(dp2693
g26
F0.5
sg27
I3
sg28
g29
((dp2694
I00
I3
stp2695
Rp2696
sg33
I2
sg34
F4.0
sbs(g8
g544
tp2697
g0
(g22
g2
Ntp2698
Rp2699
(dp2700
g26
F0.5
sg27
I6
sg28
g29
((dp2701
I00
I6
stp2702
Rp2703
sg33
I2
sg34
F7.0
sbs(g12
g195
tp2704
g0
(g22
g2
Ntp2705
Rp2706
(dp2707
g26
F0.5
sg27
I3
sg28
g29
((dp2708
I00
I3
stp2709
Rp2710
sg33
I2
sg34
F4.0
sbs(g15
g35
tp2711
g0
(g22
g2
Ntp2712
Rp2713
(dp2714
g26
F0.5
sg27
I3
sg28
g29
((dp2715
I00
I3
stp2716
Rp2717
sg33
I2
sg34
F4.0
sbs(g12
g830
tp2718
g0
(g22
g2
Ntp2719
Rp2720
(dp2721
g26
F0.5
sg27
I3
sg28
g29
((dp2722
I00
I3
stp2723
Rp2724
sg33
I2
sg34
F4.0
sbs(g15
g139
tp2725
g0
(g22
g2
Ntp2726
Rp2727
(dp2728
g26
F0.5
sg27
I3
sg28
g29
((dp2729
I00
I3
stp2730
Rp2731
sg33
I2
sg34
F4.0
sbs(g9
g407
tp2732
g0
(g22
g2
Ntp2733
Rp2734
(dp2735
g26
F0.5
sg27
I3
sg28
g29
((dp2736
I00
I3
stp2737
Rp2738
sg33
I2
sg34
F4.0
sbs(g13
g623
tp2739
g0
(g22
g2
Ntp2740
Rp2741
(dp2742
g26
F0.5
sg27
I3
sg28
g29
((dp2743
I00
I3
stp2744
Rp2745
sg33
I2
sg34
F4.0
sbs(g15
g91
tp2746
g0
(g22
g2
Ntp2747
Rp2748
(dp2749
g26
F0.5
sg27
I3
sg28
g29
((dp2750
I00
I3
stp2751
Rp2752
sg33
I2
sg34
F4.0
sbs(g8
g741
tp2753
g0
(g22
g2
Ntp2754
Rp2755
(dp2756
g26
F0.5
sg27
I6
sg28
g29
((dp2757
I00
I5
sI01
I1
stp2758
Rp2759
sg33
I2
sg34
F7.0
sbs(g11
g123
tp2760
g0
(g22
g2
Ntp2761
Rp2762
(dp2763
g26
F0.5
sg27
I3
sg28
g29
((dp2764
I00
I3
stp2765
Rp2766
sg33
I2
sg34
F4.0
sbs(g10
g361
tp2767
g0
(g22
g2
Ntp2768
Rp2769
(dp2770
g26
F0.5
sg27
I4
sg28
g29
((dp2771
I00
I4
stp2772
Rp2773
sg33
I2
sg34
F5.0
sbs(g13
g544
tp2774
g0
(g22
g2
Ntp2775
Rp2776
(dp2777
g26
F0.5
sg27
I3
sg28
g29
((dp2778
I00
I3
stp2779
Rp2780
sg33
I2
sg34
F4.0
sbs(g15
g131
tp2781
g0
(g22
g2
Ntp2782
Rp2783
(dp2784
g26
F0.5
sg27
I3
sg28
g29
((dp2785
I00
I3
stp2786
Rp2787
sg33
I2
sg34
F4.0
sbs(g9
g107
tp2788
g0
(g22
g2
Ntp2789
Rp2790
(dp2791
g26
F0.5
sg27
I3
sg28
g29
((dp2792
I00
I2
sI01
I1
stp2793
Rp2794
sg33
I2
sg34
F4.0
sbs(g12
g492
tp2795
g0
(g22
g2
Ntp2796
Rp2797
(dp2798
g26
F0.5
sg27
I3
sg28
g29
((dp2799
I00
I3
stp2800
Rp2801
sg33
I2
sg34
F4.0
sbs(g9
g147
tp2802
g0
(g22
g2
Ntp2803
Rp2804
(dp2805
g26
F0.5
sg27
I3
sg28
g29
((dp2806
I00
I3
stp2807
Rp2808
sg33
I2
sg34
F4.0
sbs(g12
g407
tp2809
g0
(g22
g2
Ntp2810
Rp2811
(dp2812
g26
F0.5
sg27
I3
sg28
g29
((dp2813
I00
I2
sI01
I1
stp2814
Rp2815
sg33
I2
sg34
F4.0
sbs(g12
g698
tp2816
g0
(g22
g2
Ntp2817
Rp2818
(dp2819
g26
F0.5
sg27
I3
sg28
g29
((dp2820
I00
I3
stp2821
Rp2822
sg33
I2
sg34
F4.0
sbs(g13
g1106
tp2823
g0
(g22
g2
Ntp2824
Rp2825
(dp2826
g26
F0.5
sg27
I3
sg28
g29
((dp2827
I00
I3
stp2828
Rp2829
sg33
I2
sg34
F4.0
sbs(g10
g91
tp2830
g0
(g22
g2
Ntp2831
Rp2832
(dp2833
g26
F0.5
sg27
I4
sg28
g29
((dp2834
I00
I4
stp2835
Rp2836
sg33
I2
sg34
F5.0
sbs(g8
g623
tp2837
g0
(g22
g2
Ntp2838
Rp2839
(dp2840
g26
F0.5
sg27
I6
sg28
g29
((dp2841
I00
I5
sI01
I1
stp2842
Rp2843
sg33
I2
sg34
F7.0
sbs(g10
g1106
tp2844
g0
(g22
g2
Ntp2845
Rp2846
(dp2847
g26
F0.5
sg27
I4
sg28
g29
((dp2848
I00
I4
stp2849
Rp2850
sg33
I2
sg34
F5.0
sbs(g11
g51
tp2851
g0
(g22
g2
Ntp2852
Rp2853
(dp2854
g26
F0.5
sg27
I3
sg28
g29
((dp2855
I00
I3
stp2856
Rp2857
sg33
I2
sg34
F4.0
sbs(g14
g115
tp2858
g0
(g22
g2
Ntp2859
Rp2860
(dp2861
g26
F0.5
sg27
I2
sg28
g29
((dp2862
I00
I2
stp2863
Rp2864
sg33
I2
sg34
F3.0
sbs(g10
g195
tp2865
g0
(g22
g2
Ntp2866
Rp2867
(dp2868
g26
F0.5
sg27
I4
sg28
g29
((dp2869
I00
I4
stp2870
Rp2871
sg33
I2
sg34
F5.0
sbs(g12
g187
tp2872
g0
(g22
g2
Ntp2873
Rp2874
(dp2875
g26
F0.5
sg27
I3
sg28
g29
((dp2876
I00
I3
stp2877
Rp2878
sg33
I2
sg34
F4.0
sbs(g10
g794
tp2879
g0
(g22
g2
Ntp2880
Rp2881
(dp2882
g26
F0.5
sg27
I4
sg28
g29
((dp2883
I00
I3
sI01
I1
stp2884
Rp2885
sg33
I2
sg34
F5.0
sbs(g9
g115
tp2886
g0
(g22
g2
Ntp2887
Rp2888
(dp2889
g26
F0.5
sg27
I3
sg28
g29
((dp2890
I00
I3
stp2891
Rp2892
sg33
I2
sg34
F4.0
sbs(g9
g210
tp2893
g0
(g22
g2
Ntp2894
Rp2895
(dp2896
g26
F0.5
sg27
I3
sg28
g29
((dp2897
I00
I3
stp2898
Rp2899
sg33
I2
sg34
F4.0
sbs(g10
g123
tp2900
g0
(g22
g2
Ntp2901
Rp2902
(dp2903
g26
F0.5
sg27
I4
sg28
g29
((dp2904
I00
I4
stp2905
Rp2906
sg33
I2
sg34
F5.0
sbs(g9
g492
tp2907
g0
(g22
g2
Ntp2908
Rp2909
(dp2910
g26
F0.5
sg27
I3
sg28
g29
((dp2911
I01
I3
stp2912
Rp2913
sg33
I2
sg34
F4.0
sbs(g9
g778
tp2914
g0
(g22
g2
Ntp2915
Rp2916
(dp2917
g26
F0.5
sg27
I3
sg28
g29
((dp2918
I00
I3
stp2919
Rp2920
sg33
I2
sg34
F4.0
sbs(g10
g786
tp2921
g0
(g22
g2
Ntp2922
Rp2923
(dp2924
g26
F0.5
sg27
I4
sg28
g29
((dp2925
I00
I4
stp2926
Rp2927
sg33
I2
sg34
F5.0
sbs(g17
g20
tp2928
g0
(g22
g2
Ntp2929
Rp2930
(dp2931
g26
F0.5
sg27
I3
sg28
g29
((dp2932
I00
I3
stp2933
Rp2934
sg33
I2
sg34
F4.0
sbs(g15
g407
tp2935
g0
(g22
g2
Ntp2936
Rp2937
(dp2938
g26
F0.5
sg27
I3
sg28
g29
((dp2939
I00
I3
stp2940
Rp2941
sg33
I2
sg34
F4.0
sbs(g14
g43
tp2942
g0
(g22
g2
Ntp2943
Rp2944
(dp2945
g26
F0.5
sg27
I2
sg28
g29
((dp2946
I00
I2
stp2947
Rp2948
sg33
I2
sg34
F3.0
sbs(g8
g830
tp2949
g0
(g22
g2
Ntp2950
Rp2951
(dp2952
g26
F0.5
sg27
I6
sg28
g29
((dp2953
I00
I6
stp2954
Rp2955
sg33
I2
sg34
F7.0
sbs(g12
g131
tp2956
g0
(g22
g2
Ntp2957
Rp2958
(dp2959
g26
F0.5
sg27
I3
sg28
g29
((dp2960
I00
I3
stp2961
Rp2962
sg33
I2
sg34
F4.0
sbs(g11
g369
tp2963
g0
(g22
g2
Ntp2964
Rp2965
(dp2966
g26
F0.5
sg27
I3
sg28
g29
((dp2967
I00
I3
stp2968
Rp2969
sg33
I2
sg34
F4.0
sbs(g15
g51
tp2970
g0
(g22
g2
Ntp2971
Rp2972
(dp2973
g26
F0.5
sg27
I3
sg28
g29
((dp2974
I00
I3
stp2975
Rp2976
sg33
I2
sg34
F4.0
sbs(g16
g587
tp2977
g0
(g22
g2
Ntp2978
Rp2979
(dp2980
g26
F0.5
sg27
I5
sg28
g29
((dp2981
I00
I5
stp2982
Rp2983
sg33
I2
sg34
F6.0
sbs(g10
g331
tp2984
g0
(g22
g2
Ntp2985
Rp2986
(dp2987
g26
F0.5
sg27
I4
sg28
g29
((dp2988
I00
I3
sI01
I1
stp2989
Rp2990
sg33
I2
sg34
F5.0
sbs(g15
g147
tp2991
g0
(g22
g2
Ntp2992
Rp2993
(dp2994
g26
F0.5
sg27
I3
sg28
g29
((dp2995
I00
I3
stp2996
Rp2997
sg33
I2
sg34
F4.0
sbs(g11
g91
tp2998
g0
(g22
g2
Ntp2999
Rp3000
(dp3001
g26
F0.5
sg27
I3
sg28
g29
((dp3002
I00
I3
stp3003
Rp3004
sg33
I2
sg34
F4.0
sbs(g12
g35
tp3005
g0
(g22
g2
Ntp3006
Rp3007
(dp3008
g26
F0.5
sg27
I3
sg28
g29
((dp3009
I00
I3
stp3010
Rp3011
sg33
I2
sg34
F4.0
sbs(g11
g264
tp3012
g0
(g22
g2
Ntp3013
Rp3014
(dp3015
g26
F0.5
sg27
I3
sg28
g29
((dp3016
I00
I3
stp3017
Rp3018
sg33
I2
sg34
F4.0
sbs(g13
g749
tp3019
g0
(g22
g2
Ntp3020
Rp3021
(dp3022
g26
F0.5
sg27
I3
sg28
g29
((dp3023
I00
I3
stp3024
Rp3025
sg33
I2
sg34
F4.0
sbs(g9
g683
tp3026
g0
(g22
g2
Ntp3027
Rp3028
(dp3029
g26
F0.5
sg27
I3
sg28
g29
((dp3030
I00
I3
stp3031
Rp3032
sg33
I2
sg34
F4.0
sbs(g12
g794
tp3033
g0
(g22
g2
Ntp3034
Rp3035
(dp3036
g26
F0.5
sg27
I3
sg28
g29
((dp3037
I00
I3
stp3038
Rp3039
sg33
I2
sg34
F4.0
sbs(g9
g241
tp3040
g0
(g22
g2
Ntp3041
Rp3042
(dp3043
g26
F0.5
sg27
I3
sg28
g29
((dp3044
I00
I3
stp3045
Rp3046
sg33
I2
sg34
F4.0
sbs(g11
g233
tp3047
g0
(g22
g2
Ntp3048
Rp3049
(dp3050
g26
F0.5
sg27
I3
sg28
g29
((dp3051
I00
I3
stp3052
Rp3053
sg33
I2
sg34
F4.0
sbs(g17
g514
tp3054
g0
(g22
g2
Ntp3055
Rp3056
(dp3057
g26
F0.5
sg27
I3
sg28
g29
((dp3058
I00
I3
stp3059
Rp3060
sg33
I2
sg34
F4.0
sbs(g16
g179
tp3061
g0
(g22
g2
Ntp3062
Rp3063
(dp3064
g26
F0.5
sg27
I5
sg28
g29
((dp3065
I00
I4
sI01
I1
stp3066
Rp3067
sg33
I2
sg34
F6.0
sbs(g17
g1457
tp3068
g0
(g22
g2
Ntp3069
Rp3070
(dp3071
g26
F0.5
sg27
I3
sg28
g29
((dp3072
I00
I3
stp3073
Rp3074
sg33
I2
sg34
F4.0
sbs(g13
g210
tp3075
g0
(g22
g2
Ntp3076
Rp3077
(dp3078
g26
F0.5
sg27
I3
sg28
g29
((dp3079
I00
I3
stp3080
Rp3081
sg33
I2
sg34
F4.0
sbs(g15
g155
tp3082
g0
(g22
g2
Ntp3083
Rp3084
(dp3085
g26
F0.5
sg27
I3
sg28
g29
((dp3086
I00
I3
stp3087
Rp3088
sg33
I2
sg34
F4.0
sbs(g14
g59
tp3089
g0
(g22
g2
Ntp3090
Rp3091
(dp3092
g26
F0.5
sg27
I2
sg28
g29
((dp3093
I00
I2
stp3094
Rp3095
sg33
I2
sg34
F3.0
sbs(g16
g794
tp3096
g0
(g22
g2
Ntp3097
Rp3098
(dp3099
g26
F0.5
sg27
I5
sg28
g29
((dp3100
I00
I5
stp3101
Rp3102
sg33
I2
sg34
F6.0
sbs(g14
g794
tp3103
g0
(g22
g2
Ntp3104
Rp3105
(dp3106
g26
F0.5
sg27
I2
sg28
g29
((dp3107
I00
I2
stp3108
Rp3109
sg33
I2
sg34
F3.0
sbs(g17
g155
tp3110
g0
(g22
g2
Ntp3111
Rp3112
(dp3113
g26
F0.5
sg27
I3
sg28
g29
((dp3114
I00
I3
stp3115
Rp3116
sg33
I2
sg34
F4.0
sbs(g16
g35
tp3117
g0
(g22
g2
Ntp3118
Rp3119
(dp3120
g26
F0.5
sg27
I5
sg28
g29
((dp3121
I00
I5
stp3122
Rp3123
sg33
I2
sg34
F6.0
sbs(g13
g123
tp3124
g0
(g22
g2
Ntp3125
Rp3126
(dp3127
g26
F0.5
sg27
I3
sg28
g29
((dp3128
I00
I3
stp3129
Rp3130
sg33
I2
sg34
F4.0
sbs(g12
g683
tp3131
g0
(g22
g2
Ntp3132
Rp3133
(dp3134
g26
F0.5
sg27
I3
sg28
g29
((dp3135
I00
I3
stp3136
Rp3137
sg33
I2
sg34
F4.0
sbs(g14
g256
tp3138
g0
(g22
g2
Ntp3139
Rp3140
(dp3141
g26
F0.5
sg27
I2
sg28
g29
((dp3142
I00
I2
stp3143
Rp3144
sg33
I2
sg34
F3.0
sbs(g10
g353
tp3145
g0
(g22
g2
Ntp3146
Rp3147
(dp3148
g26
F0.5
sg27
I4
sg28
g29
((dp3149
I00
I4
stp3150
Rp3151
sg33
I2
sg34
F5.0
sbs(g13
g99
tp3152
g0
(g22
g2
Ntp3153
Rp3154
(dp3155
g26
F0.5
sg27
I3
sg28
g29
((dp3156
I00
I3
stp3157
Rp3158
sg33
I2
sg34
F4.0
sbs(g11
g391
tp3159
g0
(g22
g2
Ntp3160
Rp3161
(dp3162
g26
F0.5
sg27
I3
sg28
g29
((dp3163
I00
I3
stp3164
Rp3165
sg33
I2
sg34
F4.0
sbs(g13
g522
tp3166
g0
(g22
g2
Ntp3167
Rp3168
(dp3169
g26
F0.5
sg27
I3
sg28
g29
((dp3170
I00
I3
stp3171
Rp3172
sg33
I2
sg34
F4.0
sbs(g13
g187
tp3173
g0
(g22
g2
Ntp3174
Rp3175
(dp3176
g26
F0.5
sg27
I3
sg28
g29
((dp3177
I00
I2
sI01
I1
stp3178
Rp3179
sg33
I2
sg34
F4.0
sbs(g11
g623
tp3180
g0
(g22
g2
Ntp3181
Rp3182
(dp3183
g26
F0.5
sg27
I3
sg28
g29
((dp3184
I00
I3
stp3185
Rp3186
sg33
I2
sg34
F4.0
sbs(g16
g256
tp3187
g0
(g22
g2
Ntp3188
Rp3189
(dp3190
g26
F0.5
sg27
I5
sg28
g29
((dp3191
I00
I4
sI01
I1
stp3192
Rp3193
sg33
I2
sg34
F6.0
sbs(g8
g241
tp3194
g0
(g22
g2
Ntp3195
Rp3196
(dp3197
g26
F0.5
sg27
I6
sg28
g29
((dp3198
I00
I4
sI01
I2
stp3199
Rp3200
sg33
I2
sg34
F7.0
sbs(g16
g544
tp3201
g0
(g22
g2
Ntp3202
Rp3203
(dp3204
g26
F0.5
sg27
I5
sg28
g29
((dp3205
I00
I5
stp3206
Rp3207
sg33
I2
sg34
F6.0
sbs(g16
g131
tp3208
g0
(g22
g2
Ntp3209
Rp3210
(dp3211
g26
F0.5
sg27
I5
sg28
g29
((dp3212
I00
I5
stp3213
Rp3214
sg33
I2
sg34
F6.0
sbs(g8
g1457
tp3215
g0
(g22
g2
Ntp3216
Rp3217
(dp3218
g26
F0.5
sg27
I6
sg28
g29
((dp3219
I00
I5
sI01
I1
stp3220
Rp3221
sg33
I2
sg34
F7.0
sbs(g11
g1457
tp3222
g0
(g22
g2
Ntp3223
Rp3224
(dp3225
g26
F0.5
sg27
I3
sg28
g29
((dp3226
I00
I3
stp3227
Rp3228
sg33
I2
sg34
F4.0
sbs(g14
g361
tp3229
g0
(g22
g2
Ntp3230
Rp3231
(dp3232
g26
F0.5
sg27
I2
sg28
g29
((dp3233
I00
I2
stp3234
Rp3235
sg33
I2
sg34
F3.0
sbs(g8
g1091
tp3236
g0
(g22
g2
Ntp3237
Rp3238
(dp3239
g26
F0.5
sg27
I6
sg28
g29
((dp3240
I00
I6
stp3241
Rp3242
sg33
I2
sg34
F7.0
sbs(g13
g698
tp3243
g0
(g22
g2
Ntp3244
Rp3245
(dp3246
g26
F0.5
sg27
I3
sg28
g29
((dp3247
I00
I3
stp3248
Rp3249
sg33
I2
sg34
F4.0
sbs(g16
g741
tp3250
g0
(g22
g2
Ntp3251
Rp3252
(dp3253
g26
F0.5
sg27
I5
sg28
g29
((dp3254
I00
I5
stp3255
Rp3256
sg33
I2
sg34
F6.0
sbs(g13
g67
tp3257
g0
(g22
g2
Ntp3258
Rp3259
(dp3260
g26
F0.5
sg27
I3
sg28
g29
((dp3261
I00
I3
stp3262
Rp3263
sg33
I2
sg34
F4.0
sbs(g14
g1457
tp3264
g0
(g22
g2
Ntp3265
Rp3266
(dp3267
g26
F0.5
sg27
I2
sg28
g29
((dp3268
I00
I2
stp3269
Rp3270
sg33
I2
sg34
F3.0
sbs(g10
g544
tp3271
g0
(g22
g2
Ntp3272
Rp3273
(dp3274
g26
F0.5
sg27
I4
sg28
g29
((dp3275
I00
I4
stp3276
Rp3277
sg33
I2
sg34
F5.0
sbs(g12
g391
tp3278
g0
(g22
g2
Ntp3279
Rp3280
(dp3281
g26
F0.5
sg27
I3
sg28
g29
((dp3282
I00
I3
stp3283
Rp3284
sg33
I2
sg34
F4.0
sbs(g16
g187
tp3285
g0
(g22
g2
Ntp3286
Rp3287
(dp3288
g26
F0.5
sg27
I5
sg28
g29
((dp3289
I00
I5
stp3290
Rp3291
sg33
I2
sg34
F6.0
sbs(g13
g107
tp3292
g0
(g22
g2
Ntp3293
Rp3294
(dp3295
g26
F0.5
sg27
I3
sg28
g29
((dp3296
I00
I3
stp3297
Rp3298
sg33
I2
sg34
F4.0
sbs(g13
g75
tp3299
g0
(g22
g2
Ntp3300
Rp3301
(dp3302
g26
F0.5
sg27
I3
sg28
g29
((dp3303
I00
I3
stp3304
Rp3305
sg33
I2
sg34
F4.0
sbs(g15
g492
tp3306
g0
(g22
g2
Ntp3307
Rp3308
(dp3309
g26
F0.5
sg27
I3
sg28
g29
((dp3310
I01
I3
stp3311
Rp3312
sg33
I2
sg34
F4.0
sbs(g17
g778
tp3313
g0
(g22
g2
Ntp3314
Rp3315
(dp3316
g26
F0.5
sg27
I3
sg28
g29
((dp3317
I00
I3
stp3318
Rp3319
sg33
I2
sg34
F4.0
sbs(g13
g1457
tp3320
g0
(g22
g2
Ntp3321
Rp3322
(dp3323
g26
F0.5
sg27
I3
sg28
g29
((dp3324
I00
I3
stp3325
Rp3326
sg33
I2
sg34
F4.0
sbs(g15
g749
tp3327
g0
(g22
g2
Ntp3328
Rp3329
(dp3330
g26
F0.5
sg27
I3
sg28
g29
((dp3331
I00
I2
sI01
I1
stp3332
Rp3333
sg33
I2
sg34
F4.0
sbs(g14
g675
tp3334
g0
(g22
g2
Ntp3335
Rp3336
(dp3337
g26
F0.5
sg27
I2
sg28
g29
((dp3338
I00
I2
stp3339
Rp3340
sg33
I2
sg34
F3.0
sbs(g17
g492
tp3341
g0
(g22
g2
Ntp3342
Rp3343
(dp3344
g26
F0.5
sg27
I3
sg28
g29
((dp3345
I00
I3
stp3346
Rp3347
sg33
I2
sg34
F4.0
sbs(g17
g115
tp3348
g0
(g22
g2
Ntp3349
Rp3350
(dp3351
g26
F0.5
sg27
I3
sg28
g29
((dp3352
I00
I3
stp3353
Rp3354
sg33
I2
sg34
F4.0
sbs(g9
g623
tp3355
g0
(g22
g2
Ntp3356
Rp3357
(dp3358
g26
F0.5
sg27
I3
sg28
g29
((dp3359
I00
I3
stp3360
Rp3361
sg33
I2
sg34
F4.0
sbs(g9
g391
tp3362
g0
(g22
g2
Ntp3363
Rp3364
(dp3365
g26
F0.5
sg27
I3
sg28
g29
((dp3366
I00
I2
sI01
I1
stp3367
Rp3368
sg33
I2
sg34
F4.0
sbs(g17
g123
tp3369
g0
(g22
g2
Ntp3370
Rp3371
(dp3372
g26
F0.5
sg27
I3
sg28
g29
((dp3373
I00
I3
stp3374
Rp3375
sg33
I2
sg34
F4.0
sbs(g12
g233
tp3376
g0
(g22
g2
Ntp3377
Rp3378
(dp3379
g26
F0.5
sg27
I3
sg28
g29
((dp3380
I00
I3
stp3381
Rp3382
sg33
I2
sg34
F4.0
sbs(g13
g163
tp3383
g0
(g22
g2
Ntp3384
Rp3385
(dp3386
g26
F0.5
sg27
I3
sg28
g29
((dp3387
I00
I3
stp3388
Rp3389
sg33
I2
sg34
F4.0
sbs(g15
g522
tp3390
g0
(g22
g2
Ntp3391
Rp3392
(dp3393
g26
F0.5
sg27
I3
sg28
g29
((dp3394
I00
I3
stp3395
Rp3396
sg33
I2
sg34
F4.0
sbs(g11
g361
tp3397
g0
(g22
g2
Ntp3398
Rp3399
(dp3400
g26
F0.5
sg27
I3
sg28
g29
((dp3401
I00
I3
stp3402
Rp3403
sg33
I2
sg34
F4.0
sbs(g17
g645
tp3404
g0
(g22
g2
Ntp3405
Rp3406
(dp3407
g26
F0.5
sg27
I3
sg28
g29
((dp3408
I00
I3
stp3409
Rp3410
sg33
I2
sg34
F4.0
sbs(g12
g786
tp3411
g0
(g22
g2
Ntp3412
Rp3413
(dp3414
g26
F0.5
sg27
I3
sg28
g29
((dp3415
I00
I3
stp3416
Rp3417
sg33
I2
sg34
F4.0
sbs(g9
g256
tp3418
g0
(g22
g2
Ntp3419
Rp3420
(dp3421
g26
F0.5
sg27
I3
sg28
g29
((dp3422
I00
I3
stp3423
Rp3424
sg33
I2
sg34
F4.0
sbs(g17
g107
tp3425
g0
(g22
g2
Ntp3426
Rp3427
(dp3428
g26
F0.5
sg27
I3
sg28
g29
((dp3429
I00
I3
stp3430
Rp3431
sg33
I2
sg34
F4.0
sbs(g17
g522
tp3432
g0
(g22
g2
Ntp3433
Rp3434
(dp3435
g26
F0.5
sg27
I3
sg28
g29
((dp3436
I00
I3
stp3437
Rp3438
sg33
I2
sg34
F4.0
sbs(g12
g264
tp3439
g0
(g22
g2
Ntp3440
Rp3441
(dp3442
g26
F0.5
sg27
I3
sg28
g29
((dp3443
I00
I3
stp3444
Rp3445
sg33
I2
sg34
F4.0
sbs(g11
g323
tp3446
g0
(g22
g2
Ntp3447
Rp3448
(dp3449
g26
F0.5
sg27
I3
sg28
g29
((dp3450
I00
I3
stp3451
Rp3452
sg33
I2
sg34
F4.0
sbs(g10
g139
tp3453
g0
(g22
g2
Ntp3454
Rp3455
(dp3456
g26
F0.5
sg27
I4
sg28
g29
((dp3457
I00
I4
stp3458
Rp3459
sg33
I2
sg34
F5.0
sbs(g10
g391
tp3460
g0
(g22
g2
Ntp3461
Rp3462
(dp3463
g26
F0.5
sg27
I4
sg28
g29
((dp3464
I00
I4
stp3465
Rp3466
sg33
I2
sg34
F5.0
sbs(g14
g778
tp3467
g0
(g22
g2
Ntp3468
Rp3469
(dp3470
g26
F0.5
sg27
I2
sg28
g29
((dp3471
I00
I2
stp3472
Rp3473
sg33
I2
sg34
F3.0
sbs(g13
g331
tp3474
g0
(g22
g2
Ntp3475
Rp3476
(dp3477
g26
F0.5
sg27
I3
sg28
g29
((dp3478
I00
I3
stp3479
Rp3480
sg33
I2
sg34
F4.0
sbs(g9
g323
tp3481
g0
(g22
g2
Ntp3482
Rp3483
(dp3484
g26
F0.5
sg27
I3
sg28
g29
((dp3485
I00
I3
stp3486
Rp3487
sg33
I2
sg34
F4.0
sbs(g12
g369
tp3488
g0
(g22
g2
Ntp3489
Rp3490
(dp3491
g26
F0.5
sg27
I3
sg28
g29
((dp3492
I00
I3
stp3493
Rp3494
sg33
I2
sg34
F4.0
sbs(g10
g587
tp3495
g0
(g22
g2
Ntp3496
Rp3497
(dp3498
g26
F0.5
sg27
I4
sg28
g29
((dp3499
I00
I4
stp3500
Rp3501
sg33
I2
sg34
F5.0
sbs(g17
g407
tp3502
g0
(g22
g2
Ntp3503
Rp3504
(dp3505
g26
F0.5
sg27
I3
sg28
g29
((dp3506
I00
I3
stp3507
Rp3508
sg33
I2
sg34
F4.0
sbs(g9
g1457
tp3509
g0
(g22
g2
Ntp3510
Rp3511
(dp3512
g26
F0.5
sg27
I3
sg28
g29
((dp3513
I00
I3
stp3514
Rp3515
sg33
I2
sg34
F4.0
sbs(g10
g210
tp3516
g0
(g22
g2
Ntp3517
Rp3518
(dp3519
g26
F0.5
sg27
I4
sg28
g29
((dp3520
I00
I3
sI01
I1
stp3521
Rp3522
sg33
I2
sg34
F5.0
sbs(g10
g67
tp3523
g0
(g22
g2
Ntp3524
Rp3525
(dp3526
g26
F0.5
sg27
I4
sg28
g29
((dp3527
I00
I3
sI01
I1
stp3528
Rp3529
sg33
I2
sg34
F5.0
sbs(g13
g272
tp3530
g0
(g22
g2
Ntp3531
Rp3532
(dp3533
g26
F0.5
sg27
I3
sg28
g29
((dp3534
I00
I3
stp3535
Rp3536
sg33
I2
sg34
F4.0
sbs(g12
g225
tp3537
g0
(g22
g2
Ntp3538
Rp3539
(dp3540
g26
F0.5
sg27
I3
sg28
g29
((dp3541
I00
I3
stp3542
Rp3543
sg33
I2
sg34
F4.0
sbs(g17
g83
tp3544
g0
(g22
g2
Ntp3545
Rp3546
(dp3547
g26
F0.5
sg27
I3
sg28
g29
((dp3548
I00
I3
stp3549
Rp3550
sg33
I2
sg34
F4.0
sbs(g11
g210
tp3551
g0
(g22
g2
Ntp3552
Rp3553
(dp3554
g26
F0.5
sg27
I3
sg28
g29
((dp3555
I00
I3
stp3556
Rp3557
sg33
I2
sg34
F4.0
sbs(g15
g1106
tp3558
g0
(g22
g2
Ntp3559
Rp3560
(dp3561
g26
F0.5
sg27
I3
sg28
g29
((dp3562
I00
I3
stp3563
Rp3564
sg33
I2
sg34
F4.0
sbs(g13
g179
tp3565
g0
(g22
g2
Ntp3566
Rp3567
(dp3568
g26
F0.5
sg27
I3
sg28
g29
((dp3569
I00
I1
sI01
I2
stp3570
Rp3571
sg33
I2
sg34
F4.0
sbs(g14
g179
tp3572
g0
(g22
g2
Ntp3573
Rp3574
(dp3575
g26
F0.5
sg27
I2
sg28
g29
((dp3576
I00
I2
stp3577
Rp3578
sg33
I2
sg34
F3.0
sbs(g9
g369
tp3579
g0
(g22
g2
Ntp3580
Rp3581
(dp3582
g26
F0.5
sg27
I3
sg28
g29
((dp3583
I00
I3
stp3584
Rp3585
sg33
I2
sg34
F4.0
sbs(g13
g667
tp3586
g0
(g22
g2
Ntp3587
Rp3588
(dp3589
g26
F0.5
sg27
I3
sg28
g29
((dp3590
I00
I3
stp3591
Rp3592
sg33
I2
sg34
F4.0
sbs(g14
g1106
tp3593
g0
(g22
g2
Ntp3594
Rp3595
(dp3596
g26
F0.5
sg27
I2
sg28
g29
((dp3597
I00
I2
stp3598
Rp3599
sg33
I2
sg34
F3.0
sbs(g17
g67
tp3600
g0
(g22
g2
Ntp3601
Rp3602
(dp3603
g26
F0.5
sg27
I3
sg28
g29
((dp3604
I00
I3
stp3605
Rp3606
sg33
I2
sg34
F4.0
sbs(g12
g139
tp3607
g0
(g22
g2
Ntp3608
Rp3609
(dp3610
g26
F0.5
sg27
I3
sg28
g29
((dp3611
I00
I3
stp3612
Rp3613
sg33
I2
sg34
F4.0
sbs(g11
g492
tp3614
g0
(g22
g2
Ntp3615
Rp3616
(dp3617
g26
F0.5
sg27
I3
sg28
g29
((dp3618
I00
I3
stp3619
Rp3620
sg33
I2
sg34
F4.0
sbs(g17
g323
tp3621
g0
(g22
g2
Ntp3622
Rp3623
(dp3624
g26
F0.5
sg27
I3
sg28
g29
((dp3625
I00
I3
stp3626
Rp3627
sg33
I2
sg34
F4.0
sbs(g13
g741
tp3628
g0
(g22
g2
Ntp3629
Rp3630
(dp3631
g26
F0.5
sg27
I3
sg28
g29
((dp3632
I00
I3
stp3633
Rp3634
sg33
I2
sg34
F4.0
sbs(g13
g147
tp3635
g0
(g22
g2
Ntp3636
Rp3637
(dp3638
g26
F0.5
sg27
I3
sg28
g29
((dp3639
I00
I3
stp3640
Rp3641
sg33
I2
sg34
F4.0
sbs(g10
g522
tp3642
g0
(g22
g2
Ntp3643
Rp3644
(dp3645
g26
F0.5
sg27
I4
sg28
g29
((dp3646
I00
I4
stp3647
Rp3648
sg33
I2
sg34
F5.0
sbs(g13
g233
tp3649
g0
(g22
g2
Ntp3650
Rp3651
(dp3652
g26
F0.5
sg27
I3
sg28
g29
((dp3653
I00
I2
sI01
I1
stp3654
Rp3655
sg33
I2
sg34
F4.0
sbs(g14
g786
tp3656
g0
(g22
g2
Ntp3657
Rp3658
(dp3659
g26
F0.5
sg27
I2
sg28
g29
((dp3660
I00
I2
stp3661
Rp3662
sg33
I2
sg34
F3.0
sbs(g9
g51
tp3663
g0
(g22
g2
Ntp3664
Rp3665
(dp3666
g26
F0.5
sg27
I3
sg28
g29
((dp3667
I00
I3
stp3668
Rp3669
sg33
I2
sg34
F4.0
sbs(g17
g139
tp3670
g0
(g22
g2
Ntp3671
Rp3672
(dp3673
g26
F0.5
sg27
I3
sg28
g29
((dp3674
I00
I3
stp3675
Rp3676
sg33
I2
sg34
F4.0
sbs(g12
g67
tp3677
g0
(g22
g2
Ntp3678
Rp3679
(dp3680
g26
F0.5
sg27
I3
sg28
g29
((dp3681
I00
I3
stp3682
Rp3683
sg33
I2
sg34
F4.0
sbs(g10
g280
tp3684
g0
(g22
g2
Ntp3685
Rp3686
(dp3687
g26
F0.5
sg27
I4
sg28
g29
((dp3688
I00
I4
stp3689
Rp3690
sg33
I2
sg34
F5.0
sbs(g15
g280
tp3691
g0
(g22
g2
Ntp3692
Rp3693
(dp3694
g26
F0.5
sg27
I3
sg28
g29
((dp3695
I00
I3
stp3696
Rp3697
sg33
I2
sg34
F4.0
sbs(g8
g667
tp3698
g0
(g22
g2
Ntp3699
Rp3700
(dp3701
g26
F0.5
sg27
I6
sg28
g29
((dp3702
I00
I4
sI01
I2
stp3703
Rp3704
sg33
I2
sg34
F7.0
sbs(g13
g361
tp3705
g0
(g22
g2
Ntp3706
Rp3707
(dp3708
g26
F0.5
sg27
I3
sg28
g29
((dp3709
I00
I3
stp3710
Rp3711
sg33
I2
sg34
F4.0
sbs(g10
g107
tp3712
g0
(g22
g2
Ntp3713
Rp3714
(dp3715
g26
F0.5
sg27
I4
sg28
g29
((dp3716
I00
I4
stp3717
Rp3718
sg33
I2
sg34
F5.0
sbs(g15
g43
tp3719
g0
(g22
g2
Ntp3720
Rp3721
(dp3722
g26
F0.5
sg27
I3
sg28
g29
((dp3723
I00
I3
stp3724
Rp3725
sg33
I2
sg34
F4.0
sbs(g16
g492
tp3726
g0
(g22
g2
Ntp3727
Rp3728
(dp3729
g26
F0.5
sg27
I5
sg28
g29
((dp3730
I00
I5
stp3731
Rp3732
sg33
I2
sg34
F6.0
sbs(g10
g645
tp3733
g0
(g22
g2
Ntp3734
Rp3735
(dp3736
g26
F0.5
sg27
I4
sg28
g29
((dp3737
I00
I4
stp3738
Rp3739
sg33
I2
sg34
F5.0
sbs(g11
g107
tp3740
g0
(g22
g2
Ntp3741
Rp3742
(dp3743
g26
F0.5
sg27
I3
sg28
g29
((dp3744
I00
I3
stp3745
Rp3746
sg33
I2
sg34
F4.0
sbs(g14
g623
tp3747
g0
(g22
g2
Ntp3748
Rp3749
(dp3750
g26
F0.5
sg27
I2
sg28
g29
((dp3751
I00
I2
stp3752
Rp3753
sg33
I2
sg34
F3.0
sbs(g8
g225
tp3754
g0
(g22
g2
Ntp3755
Rp3756
(dp3757
g26
F0.5
sg27
I6
sg28
g29
((dp3758
I00
I6
stp3759
Rp3760
sg33
I2
sg34
F7.0
sbs(g17
g233
tp3761
g0
(g22
g2
Ntp3762
Rp3763
(dp3764
g26
F0.5
sg27
I3
sg28
g29
((dp3765
I00
I3
stp3766
Rp3767
sg33
I2
sg34
F4.0
sbs(g16
g20
tp3768
g0
(g22
g2
Ntp3769
Rp3770
(dp3771
g26
F0.5
sg27
I5
sg28
g29
((dp3772
I00
I5
stp3773
Rp3774
sg33
I2
sg34
F6.0
sbs(g10
g492
tp3775
g0
(g22
g2
Ntp3776
Rp3777
(dp3778
g26
F0.5
sg27
I4
sg28
g29
((dp3779
I00
I4
stp3780
Rp3781
sg33
I2
sg34
F5.0
sbs(g12
g123
tp3782
g0
(g22
g2
Ntp3783
Rp3784
(dp3785
g26
F0.5
sg27
I3
sg28
g29
((dp3786
I00
I3
stp3787
Rp3788
sg33
I2
sg34
F4.0
sbs(g10
g1083
tp3789
g0
(g22
g2
Ntp3790
Rp3791
(dp3792
g26
F0.5
sg27
I4
sg28
g29
((dp3793
I00
I3
sI01
I1
stp3794
Rp3795
sg33
I2
sg34
F5.0
sbs(g9
g195
tp3796
g0
(g22
g2
Ntp3797
Rp3798
(dp3799
g26
F0.5
sg27
I3
sg28
g29
((dp3800
I00
I3
stp3801
Rp3802
sg33
I2
sg34
F4.0
sbs(g13
g683
tp3803
g0
(g22
g2
Ntp3804
Rp3805
(dp3806
g26
F0.5
sg27
I3
sg28
g29
((dp3807
I00
I3
stp3808
Rp3809
sg33
I2
sg34
F4.0
sbs(g11
g20
tp3810
g0
(g22
g2
Ntp3811
Rp3812
(dp3813
g26
F0.5
sg27
I3
sg28
g29
((dp3814
I00
I3
stp3815
Rp3816
sg33
I2
sg34
F4.0
sbs(g14
g241
tp3817
g0
(g22
g2
Ntp3818
Rp3819
(dp3820
g26
F0.5
sg27
I2
sg28
g29
((dp3821
I00
I2
stp3822
Rp3823
sg33
I2
sg34
F3.0
sbs(g16
g147
tp3824
g0
(g22
g2
Ntp3825
Rp3826
(dp3827
g26
F0.5
sg27
I5
sg28
g29
((dp3828
I00
I5
stp3829
Rp3830
sg33
I2
sg34
F6.0
sbs(g16
g830
tp3831
g0
(g22
g2
Ntp3832
Rp3833
(dp3834
g26
F0.5
sg27
I5
sg28
g29
((dp3835
I00
I5
stp3836
Rp3837
sg33
I2
sg34
F6.0
sbs(g17
g587
tp3838
g0
(g22
g2
Ntp3839
Rp3840
(dp3841
g26
F0.5
sg27
I3
sg28
g29
((dp3842
I00
I3
stp3843
Rp3844
sg33
I2
sg34
F4.0
sbs(g15
g741
tp3845
g0
(g22
g2
Ntp3846
Rp3847
(dp3848
g26
F0.5
sg27
I3
sg28
g29
((dp3849
I00
I3
stp3850
Rp3851
sg33
I2
sg34
F4.0
sbs(g16
g399
tp3852
g0
(g22
g2
Ntp3853
Rp3854
(dp3855
g26
F0.5
sg27
I5
sg28
g29
((dp3856
I00
I5
stp3857
Rp3858
sg33
I2
sg34
F6.0
sbs(g14
g830
tp3859
g0
(g22
g2
Ntp3860
Rp3861
(dp3862
g26
F0.5
sg27
I2
sg28
g29
((dp3863
I00
I2
stp3864
Rp3865
sg33
I2
sg34
F3.0
sbs(g9
g361
tp3866
g0
(g22
g2
Ntp3867
Rp3868
(dp3869
g26
F0.5
sg27
I3
sg28
g29
((dp3870
I00
I3
stp3871
Rp3872
sg33
I2
sg34
F4.0
sbs(g8
g280
tp3873
g0
(g22
g2
Ntp3874
Rp3875
(dp3876
g26
F0.5
sg27
I6
sg28
g29
((dp3877
I00
I6
stp3878
Rp3879
sg33
I2
sg34
F7.0
sbs(g9
g1083
tp3880
g0
(g22
g2
Ntp3881
Rp3882
(dp3883
g26
F0.5
sg27
I3
sg28
g29
((dp3884
I00
I3
stp3885
Rp3886
sg33
I2
sg34
F4.0
sbs(g17
g623
tp3887
g0
(g22
g2
Ntp3888
Rp3889
(dp3890
g26
F0.5
sg27
I3
sg28
g29
((dp3891
I00
I3
stp3892
Rp3893
sg33
I2
sg34
F4.0
sbs(g15
g210
tp3894
g0
(g22
g2
Ntp3895
Rp3896
(dp3897
g26
F0.5
sg27
I3
sg28
g29
((dp3898
I00
I3
stp3899
Rp3900
sg33
I2
sg34
F4.0
sbs(g13
g794
tp3901
g0
(g22
g2
Ntp3902
Rp3903
(dp3904
g26
F0.5
sg27
I3
sg28
g29
((dp3905
I00
I3
stp3906
Rp3907
sg33
I2
sg34
F4.0
sbs(g15
g698
tp3908
g0
(g22
g2
Ntp3909
Rp3910
(dp3911
g26
F0.5
sg27
I3
sg28
g29
((dp3912
I00
I3
stp3913
Rp3914
sg33
I2
sg34
F4.0
sbs(g9
g91
tp3915
g0
(g22
g2
Ntp3916
Rp3917
(dp3918
g26
F0.5
sg27
I3
sg28
g29
((dp3919
I00
I3
stp3920
Rp3921
sg33
I2
sg34
F4.0
sbs(g16
g514
tp3922
g0
(g22
g2
Ntp3923
Rp3924
(dp3925
g26
F0.5
sg27
I5
sg28
g29
((dp3926
I00
I5
stp3927
Rp3928
sg33
I2
sg34
F6.0
sbs(g15
g623
tp3929
g0
(g22
g2
Ntp3930
Rp3931
(dp3932
g26
F0.5
sg27
I3
sg28
g29
((dp3933
I00
I3
stp3934
Rp3935
sg33
I2
sg34
F4.0
sbs(g13
g399
tp3936
g0
(g22
g2
Ntp3937
Rp3938
(dp3939
g26
F0.5
sg27
I3
sg28
g29
((dp3940
I00
I3
stp3941
Rp3942
sg33
I2
sg34
F4.0
sbs(g13
g43
tp3943
g0
(g22
g2
Ntp3944
Rp3945
(dp3946
g26
F0.5
sg27
I3
sg28
g29
((dp3947
I00
I3
stp3948
Rp3949
sg33
I2
sg34
F4.0
sbs(g13
g139
tp3950
g0
(g22
g2
Ntp3951
Rp3952
(dp3953
g26
F0.5
sg27
I3
sg28
g29
((dp3954
I00
I3
stp3955
Rp3956
sg33
I2
sg34
F4.0
sbs(g10
g272
tp3957
g0
(g22
g2
Ntp3958
Rp3959
(dp3960
g26
F0.5
sg27
I4
sg28
g29
((dp3961
I00
I3
sI01
I1
stp3962
Rp3963
sg33
I2
sg34
F5.0
sbs(g10
g179
tp3964
g0
(g22
g2
Ntp3965
Rp3966
(dp3967
g26
F0.5
sg27
I4
sg28
g29
((dp3968
I00
I3
sI01
I1
stp3969
Rp3970
sg33
I2
sg34
F5.0
sbs(g12
g1083
tp3971
g0
(g22
g2
Ntp3972
Rp3973
(dp3974
g26
F0.5
sg27
I3
sg28
g29
((dp3975
I00
I3
stp3976
Rp3977
sg33
I2
sg34
F4.0
sbs(g11
g272
tp3978
g0
(g22
g2
Ntp3979
Rp3980
(dp3981
g26
F0.5
sg27
I3
sg28
g29
((dp3982
I00
I3
stp3983
Rp3984
sg33
I2
sg34
F4.0
sbs(g14
g264
tp3985
g0
(g22
g2
Ntp3986
Rp3987
(dp3988
g26
F0.5
sg27
I2
sg28
g29
((dp3989
I00
I2
stp3990
Rp3991
sg33
I2
sg34
F3.0
sbs(g12
g1106
tp3992
g0
(g22
g2
Ntp3993
Rp3994
(dp3995
g26
F0.5
sg27
I3
sg28
g29
((dp3996
I00
I2
sI01
I1
stp3997
Rp3998
sg33
I2
sg34
F4.0
sbs(g16
g331
tp3999
g0
(g22
g2
Ntp4000
Rp4001
(dp4002
g26
F0.5
sg27
I5
sg28
g29
((dp4003
I00
I5
stp4004
Rp4005
sg33
I2
sg34
F6.0
sbs(g12
g778
tp4006
g0
(g22
g2
Ntp4007
Rp4008
(dp4009
g26
F0.5
sg27
I3
sg28
g29
((dp4010
I00
I3
stp4011
Rp4012
sg33
I2
sg34
F4.0
sbs(g13
g514
tp4013
g0
(g22
g2
Ntp4014
Rp4015
(dp4016
g26
F0.5
sg27
I3
sg28
g29
((dp4017
I00
I3
stp4018
Rp4019
sg33
I2
sg34
F4.0
sbs(g15
g830
tp4020
g0
(g22
g2
Ntp4021
Rp4022
(dp4023
g26
F0.5
sg27
I3
sg28
g29
((dp4024
I00
I3
stp4025
Rp4026
sg33
I2
sg34
F4.0
sbs(g11
g778
tp4027
g0
(g22
g2
Ntp4028
Rp4029
(dp4030
g26
F0.5
sg27
I3
sg28
g29
((dp4031
I00
I3
stp4032
Rp4033
sg33
I2
sg34
F4.0
sbs(g15
g99
tp4034
g0
(g22
g2
Ntp4035
Rp4036
(dp4037
g26
F0.5
sg27
I3
sg28
g29
((dp4038
I00
I3
stp4039
Rp4040
sg33
I2
sg34
F4.0
sbs(g13
g225
tp4041
g0
(g22
g2
Ntp4042
Rp4043
(dp4044
g26
F0.5
sg27
I3
sg28
g29
((dp4045
I01
I3
stp4046
Rp4047
sg33
I2
sg34
F4.0
sbs(g16
g272
tp4048
g0
(g22
g2
Ntp4049
Rp4050
(dp4051
g26
F0.5
sg27
I5
sg28
g29
((dp4052
I00
I4
sI01
I1
stp4053
Rp4054
sg33
I2
sg34
F6.0
sbs(g17
g544
tp4055
g0
(g22
g2
Ntp4056
Rp4057
(dp4058
g26
F0.5
sg27
I3
sg28
g29
((dp4059
I00
I3
stp4060
Rp4061
sg33
I2
sg34
F4.0
sbs(g11
g1083
tp4062
g0
(g22
g2
Ntp4063
Rp4064
(dp4065
g26
F0.5
sg27
I3
sg28
g29
((dp4066
I00
I3
stp4067
Rp4068
sg33
I2
sg34
F4.0
sbs(g16
g107
tp4069
g0
(g22
g2
Ntp4070
Rp4071
(dp4072
g26
F0.5
sg27
I5
sg28
g29
((dp4073
I00
I5
stp4074
Rp4075
sg33
I2
sg34
F6.0
sbs(g8
g323
tp4076
g0
(g22
g2
Ntp4077
Rp4078
(dp4079
g26
F0.5
sg27
I6
sg28
g29
((dp4080
I00
I6
stp4081
Rp4082
sg33
I2
sg34
F7.0
sbs(g16
g645
tp4083
g0
(g22
g2
Ntp4084
Rp4085
(dp4086
g26
F0.5
sg27
I5
sg28
g29
((dp4087
I00
I4
sI01
I1
stp4088
Rp4089
sg33
I2
sg34
F6.0
sbs(g9
g280
tp4090
g0
(g22
g2
Ntp4091
Rp4092
(dp4093
g26
F0.5
sg27
I3
sg28
g29
((dp4094
I00
I3
stp4095
Rp4096
sg33
I2
sg34
F4.0
sbs(g14
g195
tp4097
g0
(g22
g2
Ntp4098
Rp4099
(dp4100
g26
F0.5
sg27
I2
sg28
g29
((dp4101
I00
I2
stp4102
Rp4103
sg33
I2
sg34
F3.0
sbs(g14
g323
tp4104
g0
(g22
g2
Ntp4105
Rp4106
(dp4107
g26
F0.5
sg27
I2
sg28
g29
((dp4108
I00
I2
stp4109
Rp4110
sg33
I2
sg34
F3.0
sbs(g8
g361
tp4111
g0
(g22
g2
Ntp4112
Rp4113
(dp4114
g26
F0.5
sg27
I6
sg28
g29
((dp4115
I00
I6
stp4116
Rp4117
sg33
I2
sg34
F7.0
sbs(g16
g323
tp4118
g0
(g22
g2
Ntp4119
Rp4120
(dp4121
g26
F0.5
sg27
I5
sg28
g29
((dp4122
I00
I5
stp4123
Rp4124
sg33
I2
sg34
F6.0
sbs(g17
g683
tp4125
g0
(g22
g2
Ntp4126
Rp4127
(dp4128
g26
F0.5
sg27
I3
sg28
g29
((dp4129
I00
I3
stp4130
Rp4131
sg33
I2
sg34
F4.0
sbs(g16
g51
tp4132
g0
(g22
g2
Ntp4133
Rp4134
(dp4135
g26
F0.5
sg27
I5
sg28
g29
((dp4136
I00
I5
stp4137
Rp4138
sg33
I2
sg34
F6.0
sbs(g11
g1091
tp4139
g0
(g22
g2
Ntp4140
Rp4141
(dp4142
g26
F0.5
sg27
I3
sg28
g29
((dp4143
I00
I3
stp4144
Rp4145
sg33
I2
sg34
F4.0
sbs(g12
g1091
tp4146
g0
(g22
g2
Ntp4147
Rp4148
(dp4149
g26
F0.5
sg27
I3
sg28
g29
((dp4150
I00
I3
stp4151
Rp4152
sg33
I2
sg34
F4.0
sbs(g10
g187
tp4153
g0
(g22
g2
Ntp4154
Rp4155
(dp4156
g26
F0.5
sg27
I4
sg28
g29
((dp4157
I00
I4
stp4158
Rp4159
sg33
I2
sg34
F5.0
sbs(g13
g195
tp4160
g0
(g22
g2
Ntp4161
Rp4162
(dp4163
g26
F0.5
sg27
I3
sg28
g29
((dp4164
I00
I3
stp4165
Rp4166
sg33
I2
sg34
F4.0
sbs(g10
g683
tp4167
g0
(g22
g2
Ntp4168
Rp4169
(dp4170
g26
F0.5
sg27
I4
sg28
g29
((dp4171
I00
I4
stp4172
Rp4173
sg33
I2
sg34
F5.0
sbs(g13
g83
tp4174
g0
(g22
g2
Ntp4175
Rp4176
(dp4177
g26
F0.5
sg27
I3
sg28
g29
((dp4178
I00
I3
stp4179
Rp4180
sg33
I2
sg34
F4.0
sbs(g13
g675
tp4181
g0
(g22
g2
Ntp4182
Rp4183
(dp4184
g26
F0.5
sg27
I3
sg28
g29
((dp4185
I00
I3
stp4186
Rp4187
sg33
I2
sg34
F4.0
sbs(g8
g698
tp4188
g0
(g22
g2
Ntp4189
Rp4190
(dp4191
g26
F0.5
sg27
I6
sg28
g29
((dp4192
I00
I6
stp4193
Rp4194
sg33
I2
sg34
F7.0
sbs(g17
g794
tp4195
g0
(g22
g2
Ntp4196
Rp4197
(dp4198
g26
F0.5
sg27
I3
sg28
g29
((dp4199
I00
I3
stp4200
Rp4201
sg33
I2
sg34
F4.0
sbs(g16
g1091
tp4202
g0
(g22
g2
Ntp4203
Rp4204
(dp4205
g26
F0.5
sg27
I5
sg28
g29
((dp4206
I00
I5
stp4207
Rp4208
sg33
I2
sg34
F6.0
sbs(g10
g131
tp4209
g0
(g22
g2
Ntp4210
Rp4211
(dp4212
g26
F0.5
sg27
I4
sg28
g29
((dp4213
I00
I4
stp4214
Rp4215
sg33
I2
sg34
F5.0
sbssS'_label_probdist'
p4216
g0
(g22
g2
Ntp4217
Rp4218
(dp4219
g26
F0.5
sg27
I35
sg28
g29
((dp4220
g8
I6
sg9
I3
sg10
I4
sg11
I3
sg12
I3
sg13
I3
sg14
I2
sg15
I3
sg16
I5
sg17
I3
stp4221
Rp4222
sg33
I10
sg34
F40.0
sbsb.